(dp0
(I454
I454
tp1
(lp2
(I436
I454
tp3
as(I422
I897
tp4
(lp5
(I402
I895
tp6
as(I1100
I1675
tp7
(lp8
(I1106
I1656
tp9
a(I1096
I1696
tp10
as(I1178
I1741
tp11
(lp12
(I1174
I1763
tp13
a(I1187
I1722
tp14
as(I610
I411
tp15
(lp16
(I589
I410
tp17
a(I632
I414
tp18
as(I867
I1307
tp19
(lp20
(I868
I1328
tp21
a(I865
I1286
tp22
as(I652
I591
tp23
(lp24
(I631
I598
tp25
a(I672
I596
tp26
as(I101
I1898
tp27
(lp28
(I122
I1898
tp29
a(I81
I1898
tp30
as(I1374
I1262
tp31
(lp32
(I1358
I1262
tp33
as(I1390
I1860
tp34
(lp35
(I1393
I1839
tp36
a(I1404
I1872
tp37
as(I94
I936
tp38
(lp39
(I76
I943
tp40
a(I113
I929
tp41
as(I807
I537
tp42
(lp43
(I786
I545
tp44
a(I827
I530
tp45
as(I373
I1803
tp46
(lp47
(I393
I1808
tp48
a(I353
I1797
tp49
as(I1166
I1347
tp50
(lp51
(I1186
I1346
tp52
a(I1147
I1349
tp53
as(I1518
I439
tp54
(lp55
(I1497
I439
tp56
a(I1539
I439
tp57
as(I468
I1454
tp58
(lp59
(I446
I1451
tp60
as(I1819
I950
tp61
(lp62
(I1839
I940
tp63
a(I1800
I960
tp64
as(I1485
I331
tp65
(lp66
(I1503
I336
tp67
a(I1465
I330
tp68
as(I1122
I1191
tp69
(lp70
(I1102
I1192
tp71
a(I1141
I1190
tp72
as(I595
I1394
tp73
(lp74
(I598
I1416
tp75
a(I592
I1373
tp76
as(I1343
I1223
tp77
(lp78
(I1343
I1243
tp79
a(I1343
I1204
tp80
as(I1651
I420
tp81
(lp82
(I1634
I407
tp83
a(I1666
I435
tp84
as(I1392
I1975
tp85
(lp86
(I1410
I1966
tp87
a(I1374
I1985
tp88
as(I1340
I725
tp89
(lp90
(I1359
I715
tp91
a(I1320
I731
tp92
as(I1265
I1204
tp93
(lp94
(I1266
I1225
tp95
a(I1265
I1184
tp96
as(I2009
I815
tp97
(lp98
(I1989
I817
tp99
as(I758
I235
tp100
(lp101
(I765
I214
tp102
a(I748
I254
tp103
as(I906
I1731
tp104
(lp105
(I916
I1750
tp106
a(I920
I1718
tp107
as(I123
I1495
tp108
(lp109
(I123
I1473
tp110
a(I128
I1516
tp111
as(I401
I454
tp112
(lp113
(I419
I454
tp114
a(I397
I438
tp115
a(I406
I473
tp116
as(I442
I256
tp117
(lp118
(I441
I278
tp119
a(I423
I259
tp120
a(I439
I236
tp121
a(I464
I254
tp122
as(I331
I1641
tp123
(lp124
(I346
I1654
tp125
a(I321
I1621
tp126
as(I302
I1560
tp127
(lp128
(I307
I1581
tp129
a(I302
I1538
tp130
as(I1136
I571
tp131
(lp132
(I1156
I571
tp133
a(I1116
I573
tp134
as(I915
I45
tp135
(lp136
(I911
I66
tp137
a(I915
I56
tp138
as(I1659
I258
tp139
(lp140
(I1671
I269
tp141
a(I1662
I237
tp142
as(I331
I1734
tp143
(lp144
(I352
I1737
tp145
a(I312
I1727
tp146
as(I1476
I608
tp147
(lp148
(I1498
I608
tp149
a(I1454
I608
tp150
as(I835
I1999
tp151
(lp152
(I856
I2006
tp153
a(I815
I1991
tp154
as(I1501
I1778
tp155
(lp156
(I1505
I1799
tp157
a(I1495
I1758
tp158
as(I694
I429
tp159
(lp160
(I674
I422
tp161
a(I715
I430
tp162
as(I1716
I936
tp163
(lp164
(I1704
I954
tp165
a(I1729
I918
tp166
as(I44
I1990
tp167
(lp168
(I54
I1987
tp169
as(I222
I1946
tp170
(lp171
(I203
I1945
tp172
a(I247
I1952
tp173
as(I96
I1297
tp174
(lp175
(I74
I1296
tp176
a(I116
I1290
tp177
as(I282
I613
tp178
(lp179
(I282
I592
tp180
a(I265
I622
tp181
as(I339
I620
tp182
(lp183
(I358
I612
tp184
a(I324
I634
tp185
as(I192
I1994
tp186
(lp187
(I196
I2013
tp188
a(I176
I1985
tp189
as(I1691
I329
tp190
(lp191
(I1697
I349
tp192
a(I1671
I324
tp193
as(I607
I1504
tp194
(lp195
(I608
I1527
tp196
a(I605
I1483
tp197
asg14
(lp198
(I1178
I1741
tp199
a(I1207
I1714
tp200
as(I1749
I632
tp201
(lp202
(I1749
I652
tp203
a(I1749
I612
tp204
as(I1074
I1792
tp205
(lp206
(I1082
I1778
tp207
a(I1062
I1804
tp208
as(I744
I222
tp209
(lp210
(I724
I230
tp211
a(I765
I214
tp212
as(I525
I718
tp213
(lp214
(I546
I721
tp215
a(I506
I711
tp216
as(I177
I288
tp217
(lp218
(I156
I287
tp219
a(I199
I289
tp220
as(I711
I1319
tp221
(lp222
(I704
I1303
tp223
a(I710
I1337
tp224
as(I236
I760
tp225
(lp226
(I229
I739
tp227
a(I244
I779
tp228
as(I406
I1415
tp229
(lp230
(I409
I1394
tp231
a(I395
I1433
tp232
as(I115
I1635
tp233
(lp234
(I96
I1628
tp235
a(I135
I1644
tp236
as(I910
I791
tp237
(lp238
(I899
I809
tp239
a(I926
I778
tp240
as(I490
I1257
tp241
(lp242
(I507
I1272
tp243
a(I472
I1245
tp244
as(I1997
I459
tp245
(lp246
(I1991
I439
tp247
as(I1086
I1761
tp248
(lp249
(I1089
I1745
tp250
a(I1082
I1778
tp251
as(I957
I126
tp252
(lp253
(I943
I110
tp254
a(I968
I145
tp255
as(I1901
I111
tp256
(lp257
(I1921
I120
tp258
a(I1880
I109
tp259
as(I547
I309
tp260
(lp261
(I530
I322
tp262
a(I564
I296
tp263
as(I1337
I1690
tp264
(lp265
(I1343
I1710
tp266
a(I1322
I1680
tp267
a(I1332
I1673
tp268
as(I1372
I1492
tp269
(lp270
(I1389
I1492
tp271
a(I1354
I1494
tp272
as(I424
I1126
tp273
(lp274
(I433
I1146
tp275
a(I410
I1109
tp276
as(I150
I1035
tp277
(lp278
(I159
I1017
tp279
a(I147
I1054
tp280
as(I1474
I206
tp281
(lp282
(I1494
I201
tp283
a(I1458
I192
tp284
as(I1512
I421
tp285
(lp286
(I1494
I429
tp287
a(I1531
I412
tp288
as(I266
I1564
tp289
(lp290
(I269
I1584
tp291
a(I266
I1542
tp292
as(I139
I941
tp293
(lp294
(I131
I922
tp295
a(I147
I960
tp296
as(I909
I535
tp297
(lp298
(I930
I530
tp299
a(I888
I537
tp300
as(I1337
I625
tp301
(lp302
(I1356
I625
tp303
a(I1319
I625
tp304
as(I1593
I493
tp305
(lp306
(I1614
I490
tp307
a(I1573
I499
tp308
as(I1186
I1366
tp309
(lp310
(I1186
I1346
tp311
a(I1187
I1385
tp312
as(I1319
I2000
tp313
(lp314
(I1338
I2004
tp315
a(I1317
I1992
tp316
a(I1302
I2004
tp317
as(I590
I328
tp318
(lp319
(I602
I312
tp320
a(I577
I344
tp321
as(I688
I496
tp322
(lp323
(I667
I503
tp324
a(I709
I491
tp325
as(I1614
I606
tp326
(lp327
(I1597
I593
tp328
a(I1634
I613
tp329
as(I453
I1619
tp330
(lp331
(I460
I1618
tp332
a(I446
I1619
tp333
as(I236
I1893
tp334
(lp335
(I254
I1892
tp336
a(I218
I1893
tp337
as(I315
I1994
tp338
(lp339
(I302
I1978
tp340
a(I327
I2013
tp341
as(I1274
I254
tp342
(lp343
(I1268
I246
tp344
a(I1278
I263
tp345
as(I1686
I444
tp346
(lp347
(I1666
I435
tp348
a(I1707
I446
tp349
as(I767
I1470
tp350
(lp351
(I773
I1492
tp352
a(I761
I1450
tp353
as(I1730
I874
tp354
(lp355
(I1750
I883
tp356
a(I1709
I867
tp357
as(I110
I1820
tp358
(lp359
(I129
I1830
tp360
a(I92
I1814
tp361
as(I1360
I1515
tp362
(lp363
(I1354
I1494
tp364
a(I1370
I1534
tp365
as(I921
I1279
tp366
(lp367
(I942
I1276
tp368
a(I900
I1281
tp369
as(I64
I1368
tp370
(lp371
(I75
I1386
tp372
a(I43
I1371
tp373
a(I64
I1349
tp374
as(I730
I361
tp375
(lp376
(I741
I379
tp377
a(I716
I345
tp378
as(I77
I1620
tp379
(lp380
(I57
I1612
tp381
a(I96
I1628
tp382
as(I154
I979
tp383
(lp384
(I147
I960
tp385
a(I162
I999
tp386
as(I190
I1933
tp387
(lp388
(I169
I1938
tp389
a(I210
I1932
tp390
as(I416
I187
tp391
(lp392
(I401
I187
tp393
a(I416
I167
tp394
a(I437
I189
tp395
as(I1044
I1196
tp396
(lp397
(I1024
I1197
tp398
a(I1064
I1195
tp399
asg344
(lp400
g342
a(I1278
I234
tp401
a(I1261
I243
tp402
as(I1173
I1945
tp403
(lp404
(I1188
I1928
tp405
a(I1159
I1961
tp406
as(I355
I958
tp407
(lp408
(I376
I958
tp409
a(I333
I958
tp410
as(I1422
I579
tp411
(lp412
(I1416
I594
tp413
a(I1428
I564
tp414
as(I1663
I810
tp415
(lp416
(I1672
I791
tp417
as(I1818
I1791
tp418
(lp419
(I1805
I1806
tp420
a(I1819
I1771
tp421
as(I231
I1932
tp422
(lp423
(I210
I1932
tp424
a(I252
I1934
tp425
as(I784
I1534
tp426
(lp427
(I795
I1553
tp428
a(I777
I1513
tp429
as(I1435
I550
tp430
(lp431
(I1441
I534
tp432
a(I1428
I564
tp433
as(I1410
I677
tp434
(lp435
(I1430
I668
tp436
a(I1393
I690
tp437
as(I1432
I917
tp438
(lp439
(I1449
I904
tp440
a(I1413
I928
tp441
as(I352
I1888
tp442
(lp443
(I372
I1888
tp444
a(I332
I1889
tp445
a(I352
I1872
tp446
a(I352
I1910
tp447
as(I1200
I1482
tp448
(lp449
(I1221
I1478
tp450
a(I1181
I1492
tp451
a(I1211
I1494
tp452
asg450
(lp453
g448
a(I1242
I1480
tp454
as(I1155
I1588
tp455
(lp456
(I1140
I1578
tp457
as(I1999
I1949
tp458
(lp459
(I1990
I1931
tp460
a(I2006
I1969
tp461
as(I1909
I1804
tp462
(lp463
(I1915
I1825
tp464
a(I1903
I1782
tp465
as(I1732
I613
tp466
(lp467
(I1749
I612
tp468
a(I1715
I613
tp469
as(I372
I1888
tp470
(lp471
(I392
I1888
tp472
ag442
as(I1795
I927
tp473
(lp474
(I1810
I911
tp475
a(I1776
I932
tp476
as(I198
I985
tp477
(lp478
(I180
I992
tp479
a(I216
I978
tp480
as(I323
I1129
tp481
(lp482
(I315
I1147
tp483
a(I333
I1116
tp484
as(I712
I1501
tp485
(lp486
(I713
I1479
tp487
a(I710
I1523
tp488
as(I1679
I1779
tp489
(lp490
(I1678
I1759
tp491
a(I1676
I1798
tp492
as(I577
I1835
tp493
(lp494
(I589
I1818
tp495
a(I565
I1853
tp496
as(I371
I309
tp497
(lp498
(I391
I306
tp499
a(I351
I313
tp500
as(I1669
I1834
tp501
(lp502
(I1666
I1812
tp503
a(I1670
I1856
tp504
as(I1489
I1738
tp505
(lp506
(I1479
I1718
tp507
a(I1495
I1758
tp508
a(I1509
I1736
tp509
as(I1975
I917
tp510
(lp511
(I1995
I921
tp512
a(I1958
I908
tp513
as(I1673
I883
tp514
(lp515
(I1653
I889
tp516
a(I1692
I878
tp517
as(I79
I1873
tp518
(lp519
(I66
I1856
tp520
a(I98
I1885
tp521
as(I667
I503
tp522
(lp523
(I646
I500
tp524
ag322
as(I502
I1570
tp525
(lp526
(I502
I1586
tp527
asg26
(lp528
(I652
I591
tp529
a(I693
I597
tp530
as(I213
I700
tp531
(lp532
(I206
I679
tp533
a(I221
I719
tp534
as(I622
I114
tp535
(lp536
(I644
I115
tp537
a(I601
I115
tp538
as(I183
I1847
tp539
(lp540
(I192
I1837
tp541
a(I170
I1849
tp542
as(I1285
I1422
tp543
(lp544
(I1273
I1412
tp545
a(I1304
I1421
tp546
as(I1228
I1539
tp547
(lp548
(I1228
I1519
tp549
a(I1228
I1560
tp550
as(I1477
I1942
tp551
(lp552
(I1489
I1959
tp553
a(I1490
I1924
tp554
as(I1561
I611
tp555
(lp556
(I1540
I608
tp557
a(I1563
I632
tp558
as(I1062
I1776
tp559
(lp560
(I1069
I1761
tp561
a(I1056
I1774
tp562
a(I1054
I1781
tp563
as(I312
I307
tp564
(lp565
(I330
I315
tp566
a(I301
I290
tp567
as(I1840
I880
tp568
(lp569
(I1855
I864
tp570
a(I1825
I895
tp571
as(I404
I259
tp572
(lp573
(I423
I259
tp574
a(I385
I260
tp575
as(I1511
I518
tp576
(lp577
(I1532
I512
tp578
a(I1490
I524
tp579
asg500
(lp580
(I371
I309
tp581
a(I330
I315
tp582
as(I1519
I604
tp583
(lp584
(I1534
I592
tp585
a(I1498
I608
tp586
a(I1540
I608
tp587
as(I262
I175
tp588
(lp589
(I284
I174
tp590
a(I240
I175
tp591
as(I602
I312
tp592
(lp593
(I615
I295
tp594
ag318
as(I158
I1914
tp595
(lp596
(I173
I1931
tp597
a(I146
I1901
tp598
as(I1028
I137
tp599
(lp600
(I1015
I118
tp601
a(I1041
I154
tp602
as(I68
I1818
tp603
(lp604
(I82
I1833
tp605
a(I55
I1804
tp606
as(I1424
I1952
tp607
(lp608
(I1440
I1942
tp609
a(I1410
I1966
tp610
a(I1422
I1945
tp611
as(I1120
I1541
tp612
(lp613
(I1140
I1544
tp614
a(I1109
I1560
tp615
as(I92
I589
tp616
(lp617
(I99
I606
tp618
as(I165
I1793
tp619
(lp620
(I147
I1796
tp621
a(I176
I1787
tp622
a(I151
I1807
tp623
as(I254
I1767
tp624
(lp625
(I273
I1774
tp626
a(I234
I1760
tp627
as(I259
I1033
tp628
(lp629
(I262
I1054
tp630
a(I255
I1011
tp631
as(I1115
I1476
tp632
(lp633
(I1115
I1461
tp634
a(I1111
I1497
tp635
a(I1092
I1477
tp636
asg402
(lp637
(I1268
I246
tp638
a(I1254
I243
tp639
as(I763
I904
tp640
(lp641
(I750
I920
tp642
a(I775
I886
tp643
as(I943
I1912
tp644
(lp645
(I958
I1902
tp646
a(I949
I1933
tp647
a(I922
I1916
tp648
as(I1932
I760
tp649
(lp650
(I1920
I751
tp651
a(I1945
I768
tp652
as(I253
I90
tp653
(lp654
(I231
I89
tp655
a(I275
I90
tp656
as(I511
I331
tp657
(lp658
(I489
I334
tp659
a(I530
I322
tp660
as(I795
I1594
tp661
(lp662
(I787
I1614
tp663
a(I801
I1573
tp664
as(I1025
I1783
tp665
(lp666
(I1005
I1787
tp667
a(I1045
I1787
tp668
as(I1333
I348
tp669
(lp670
(I1321
I331
tp671
a(I1346
I363
tp672
as(I692
I1632
tp673
(lp674
(I688
I1644
tp675
a(I711
I1637
tp676
a(I697
I1610
tp677
as(I1747
I1762
tp678
(lp679
(I1728
I1762
tp680
as(I1749
I671
tp681
(lp682
(I1749
I691
tp683
a(I1749
I652
tp684
as(I1066
I190
tp685
(lp686
(I1053
I172
tp687
a(I1078
I207
tp688
as(I148
I1897
tp689
(lp690
(I158
I1895
tp691
a(I122
I1898
tp692
as(I545
I126
tp693
(lp694
(I531
I141
tp695
a(I559
I112
tp696
as(I1942
I323
tp697
(lp698
(I1928
I307
tp699
a(I1954
I340
tp700
as(I508
I255
tp701
(lp702
(I486
I254
tp703
a(I531
I255
tp704
as(I271
I1719
tp705
(lp706
(I289
I1731
tp707
a(I257
I1702
tp708
as(I165
I1088
tp709
(lp710
(I153
I1073
tp711
a(I185
I1091
tp712
as(I1784
I716
tp713
(lp714
(I1767
I703
tp715
a(I1801
I728
tp716
as(I1434
I1851
tp717
(lp718
(I1413
I1845
tp719
a(I1454
I1855
tp720
as(I329
I1751
tp721
(lp722
(I349
I1760
tp723
a(I309
I1741
tp724
as(I1787
I1910
tp725
(lp726
(I1765
I1911
tp727
a(I1810
I1910
tp728
as(I869
I99
tp729
(lp730
(I852
I109
tp731
a(I884
I90
tp732
as(I1024
I310
tp733
(lp734
(I1038
I293
tp735
a(I1021
I331
tp736
as(I417
I343
tp737
(lp738
(I425
I330
tp739
a(I409
I357
tp740
as(I1396
I340
tp741
(lp742
(I1413
I331
tp743
a(I1380
I348
tp744
as(I1406
I1418
tp745
(lp746
(I1388
I1415
tp747
a(I1425
I1417
tp748
as(I342
I92
tp749
(lp750
(I319
I91
tp751
a(I346
I109
tp752
as(I1106
I1675
tp753
(lp754
(I1106
I1656
tp755
a(I1102
I1694
tp756
as(I331
I272
tp757
(lp758
(I347
I264
tp759
a(I316
I281
tp760
as(I1457
I499
tp761
(lp762
(I1466
I479
tp763
a(I1448
I519
tp764
as(I948
I1218
tp765
(lp766
(I951
I1199
tp767
a(I948
I1237
tp768
as(I347
I176
tp769
(lp770
(I347
I153
tp771
a(I347
I198
tp772
as(I682
I184
tp773
(lp774
(I660
I185
tp775
a(I703
I188
tp776
as(I204
I1086
tp777
(lp778
(I221
I1084
tp779
a(I205
I1070
tp780
a(I185
I1091
tp781
as(I212
I1928
tp782
(lp783
(I225
I1943
tp784
a(I199
I1911
tp785
as(I1312
I585
tp786
(lp787
(I1300
I603
tp788
a(I1324
I568
tp789
as(I1203
I727
tp790
(lp791
(I1188
I712
tp792
a(I1219
I740
tp793
as(I824
I1749
tp794
(lp795
(I811
I1767
tp796
a(I832
I1729
tp797
asg437
(lp798
(I1410
I677
tp799
a(I1376
I702
tp800
as(I1181
I1193
tp801
(lp802
(I1161
I1190
tp803
a(I1200
I1192
tp804
as(I218
I1893
tp805
(lp806
(I210
I1894
tp807
a(I236
I1893
tp808
a(I232
I1905
tp809
a(I206
I1882
tp810
as(I1959
I1975
tp811
(lp812
(I1960
I1954
tp813
a(I1954
I1995
tp814
as(I344
I398
tp815
(lp816
(I324
I395
tp817
a(I362
I396
tp818
as(I569
I416
tp819
(lp820
(I548
I414
tp821
a(I589
I410
tp822
as(I129
I1830
tp823
(lp824
(I145
I1844
tp825
ag358
as(I1140
I1544
tp826
(lp827
(I1153
I1525
tp828
a(I1132
I1555
tp829
ag612
as(I1097
I744
tp830
(lp831
(I1109
I762
tp832
a(I1097
I730
tp833
a(I1085
I751
tp834
as(I1958
I233
tp835
(lp836
(I1941
I219
tp837
a(I1974
I248
tp838
as(I1054
I357
tp839
(lp840
(I1033
I348
tp841
a(I1075
I361
tp842
asg126
(lp843
(I331
I1641
tp844
a(I314
I1601
tp845
as(I200
I1526
tp846
(lp847
(I220
I1521
tp848
a(I180
I1533
tp849
as(I677
I1914
tp850
(lp851
(I681
I1931
tp852
a(I682
I1898
tp853
as(I196
I342
tp854
(lp855
(I176
I341
tp856
a(I216
I343
tp857
as(I782
I1635
tp858
(lp859
(I788
I1656
tp860
a(I787
I1614
tp861
as(I1325
I482
tp862
(lp863
(I1321
I503
tp864
a(I1318
I464
tp865
as(I238
I1961
tp866
(lp867
(I251
I1979
tp868
ag784
asg341
(lp869
(I315
I1994
tp870
a(I355
I1999
tp871
as(I1434
I409
tp872
(lp873
(I1452
I411
tp874
a(I1415
I409
tp875
as(I1279
I743
tp876
(lp877
(I1299
I737
tp878
a(I1258
I749
tp879
asg212
(lp880
(I744
I222
tp881
ag100
a(I785
I217
tp882
a(I778
I200
tp883
as(I1357
I378
tp884
(lp885
(I1369
I393
tp886
a(I1346
I363
tp887
as(I1677
I614
tp888
(lp889
(I1655
I613
tp890
a(I1698
I614
tp891
as(I1749
I735
tp892
(lp893
(I1740
I749
tp894
a(I1749
I713
tp895
a(I1749
I755
tp896
as(I579
I115
tp897
(lp898
(I601
I115
tp899
a(I559
I112
tp900
as(I1650
I328
tp901
(lp902
(I1671
I324
tp903
a(I1629
I331
tp904
as(I1022
I1362
tp905
(lp906
(I1044
I1358
tp907
a(I1002
I1371
tp908
as(I110
I1724
tp909
(lp910
(I110
I1722
tp911
a(I111
I1745
tp912
a(I129
I1726
tp913
as(I1452
I1659
tp914
(lp915
(I1443
I1640
tp916
a(I1461
I1679
tp917
as(I269
I1584
tp918
(lp919
(I278
I1603
tp920
ag289
as(I1563
I653
tp921
(lp922
(I1563
I632
tp923
a(I1558
I673
tp924
as(I1461
I1982
tp925
(lp926
(I1477
I1973
tp927
a(I1445
I1992
tp928
as(I130
I1952
tp929
(lp930
(I111
I1960
tp931
a(I150
I1945
tp932
as(I917
I746
tp933
(lp934
(I936
I753
tp935
a(I907
I729
tp936
as(I194
I1870
tp937
(lp938
(I190
I1867
tp939
a(I206
I1882
tp940
a(I195
I1853
tp941
as(I184
I1483
tp942
(lp943
(I196
I1464
tp944
a(I172
I1501
tp945
as(I938
I1811
tp946
(lp947
(I950
I1823
tp948
a(I949
I1800
tp949
as(I1097
I362
tp950
(lp951
(I1075
I361
tp952
a(I1119
I358
tp953
as(I624
I495
tp954
(lp955
(I603
I491
tp956
a(I646
I500
tp957
as(I425
I1625
tp958
(lp959
(I446
I1619
tp960
a(I406
I1635
tp961
as(I1338
I2004
tp962
(lp963
(I1356
I1994
tp964
ag313
as(I1936
I1879
tp965
(lp966
(I1930
I1865
tp967
a(I1943
I1893
tp968
as(I1678
I59
tp969
(lp970
(I1694
I74
tp971
a(I1665
I43
tp972
as(I1301
I1073
tp973
(lp974
(I1321
I1064
tp975
a(I1282
I1083
tp976
as(I1802
I233
tp977
(lp978
(I1807
I217
tp979
a(I1785
I240
tp980
a(I1823
I236
tp981
as(I1749
I691
tp982
(lp983
(I1767
I703
tp984
a(I1749
I713
tp985
ag681
as(I366
I363
tp986
(lp987
(I345
I359
tp988
a(I388
I367
tp989
as(I211
I400
tp990
(lp991
(I194
I391
tp992
a(I229
I402
tp993
as(I1181
I109
tp994
(lp995
(I1202
I114
tp996
a(I1162
I99
tp997
asg647
(lp998
(I943
I1912
tp999
a(I959
I1951
tp1000
asg452
(lp1001
(I1200
I1482
tp1002
a(I1224
I1502
tp1003
as(I1212
I255
tp1004
(lp1005
(I1191
I260
tp1006
a(I1233
I249
tp1007
as(I1807
I309
tp1008
(lp1009
(I1787
I305
tp1010
a(I1826
I317
tp1011
as(I394
I1093
tp1012
(lp1013
(I410
I1109
tp1014
a(I377
I1079
tp1015
as(I847
I1797
tp1016
(lp1017
(I839
I1813
tp1018
a(I868
I1792
tp1019
asg793
(lp1020
(I1203
I727
tp1021
a(I1237
I749
tp1022
as(I1580
I142
tp1023
(lp1024
(I1595
I127
tp1025
a(I1600
I149
tp1026
a(I1561
I149
tp1027
asg220
(lp1028
(I177
I288
tp1029
a(I218
I299
tp1030
a(I215
I278
tp1031
as(I1838
I562
tp1032
(lp1033
(I1851
I577
tp1034
a(I1833
I543
tp1035
as(I520
I586
tp1036
(lp1037
(I502
I598
tp1038
a(I529
I566
tp1039
as(I176
I341
tp1040
(lp1041
(I155
I340
tp1042
ag854
as(I1209
I1890
tp1043
(lp1044
(I1213
I1868
tp1045
a(I1200
I1910
tp1046
as(I1051
I1769
tp1047
(lp1048
(I1049
I1778
tp1049
a(I1052
I1752
tp1050
a(I1056
I1774
tp1051
as(I880
I1906
tp1052
(lp1053
(I900
I1912
tp1054
a(I858
I1900
tp1055
as(I741
I1731
tp1056
(lp1057
(I736
I1753
tp1058
a(I744
I1710
tp1059
as(I921
I106
tp1060
(lp1061
(I901
I113
tp1062
a(I943
I110
tp1063
as(I97
I1973
tp1064
(lp1065
(I76
I1981
tp1066
a(I118
I1966
tp1067
as(I708
I1436
tp1068
(lp1069
(I701
I1415
tp1070
a(I712
I1457
tp1071
as(I82
I675
tp1072
(lp1073
(I100
I663
tp1074
a(I66
I690
tp1075
asg838
(lp1076
(I1958
I233
tp1077
a(I1989
I265
tp1078
as(I1108
I239
tp1079
(lp1080
(I1091
I225
tp1081
a(I1127
I249
tp1082
as(I1103
I1212
tp1083
(lp1084
(I1104
I1232
tp1085
a(I1102
I1192
tp1086
asg150
(lp1087
(I1476
I608
tp1088
a(I1432
I608
tp1089
as(I1183
I1268
tp1090
(lp1091
(I1184
I1288
tp1092
a(I1203
I1267
tp1093
a(I1164
I1269
tp1094
as(I1299
I737
tp1095
(lp1096
(I1320
I731
tp1097
ag876
asg688
(lp1098
(I1066
I190
tp1099
a(I1091
I225
tp1100
as(I729
I1370
tp1101
(lp1102
(I741
I1387
tp1103
a(I708
I1374
tp1104
as(I1465
I685
tp1105
(lp1106
(I1470
I705
tp1107
a(I1450
I669
tp1108
as(I787
I482
tp1109
(lp1110
(I774
I498
tp1111
a(I799
I463
tp1112
as(I698
I1393
tp1113
(lp1114
(I708
I1374
tp1115
a(I701
I1415
tp1116
as(I1322
I1680
tp1117
(lp1118
(I1316
I1659
tp1119
a(I1337
I1690
tp1120
as(I546
I721
tp1121
(lp1122
(I567
I726
tp1123
ag213
as(I1511
I188
tp1124
(lp1125
(I1494
I201
tp1126
a(I1527
I175
tp1127
as(I1027
I1272
tp1128
(lp1129
(I1026
I1253
tp1130
a(I1047
I1272
tp1131
a(I1006
I1273
tp1132
as(I417
I547
tp1133
(lp1134
(I417
I566
tp1135
a(I415
I528
tp1136
as(I90
I379
tp1137
(lp1138
(I72
I392
tp1139
a(I105
I363
tp1140
as(I435
I371
tp1141
(lp1142
(I434
I349
tp1143
a(I453
I381
tp1144
as(I1267
I1245
tp1145
(lp1146
(I1262
I1265
tp1147
a(I1266
I1225
tp1148
as(I1695
I595
tp1149
(lp1150
(I1688
I578
tp1151
a(I1698
I614
tp1152
as(I1217
I432
tp1153
(lp1154
(I1209
I412
tp1155
a(I1236
I442
tp1156
asg1100
(lp1157
(I1078
I207
tp1158
ag1079
as(I1346
I363
tp1159
(lp1160
(I1326
I365
tp1161
a(I1333
I348
tp1162
a(I1363
I357
tp1163
a(I1357
I378
tp1164
asg554
(lp1165
(I1477
I1942
tp1166
a(I1502
I1905
tp1167
as(I1096
I575
tp1168
(lp1169
(I1116
I573
tp1170
a(I1076
I578
tp1171
as(I319
I91
tp1172
(lp1173
(I297
I90
tp1174
ag749
asg882
(lp1175
(I765
I214
tp1176
a(I805
I225
tp1177
as(I715
I280
tp1178
(lp1179
(I734
I270
tp1180
a(I698
I291
tp1181
as(I877
I1858
tp1182
(lp1183
(I896
I1865
tp1184
a(I868
I1839
tp1185
as(I441
I278
tp1186
(lp1187
(I437
I298
tp1188
ag117
as(I425
I1612
tp1189
(lp1190
(I446
I1619
tp1191
a(I405
I1605
tp1192
as(I1130
I770
tp1193
(lp1194
(I1151
I769
tp1195
a(I1109
I762
tp1196
asg284
(lp1197
(I1474
I206
tp1198
a(I1452
I171
tp1199
as(I247
I1982
tp1200
(lp1201
(I263
I1997
tp1202
a(I231
I1966
tp1203
as(I637
I370
tp1204
(lp1205
(I617
I370
tp1206
a(I658
I370
tp1207
as(I1614
I901
tp1208
(lp1209
(I1595
I908
tp1210
a(I1634
I895
tp1211
asg1181
(lp1212
(I715
I280
tp1213
a(I691
I310
tp1214
asg861
(lp1215
(I782
I1635
tp1216
ag661
as(I581
I1717
tp1217
(lp1218
(I591
I1698
tp1219
a(I568
I1734
tp1220
as(I1813
I486
tp1221
(lp1222
(I1825
I503
tp1223
a(I1796
I475
tp1224
asg546
(lp1225
(I1285
I1422
tp1226
as(I583
I1352
tp1227
(lp1228
(I592
I1373
tp1229
a(I569
I1335
tp1230
as(I419
I1211
tp1231
(lp1232
(I431
I1228
tp1233
a(I424
I1189
tp1234
as(I552
I1870
tp1235
(lp1236
(I565
I1853
tp1237
a(I535
I1882
tp1238
as(I1843
I124
tp1239
(lp1240
(I1859
I111
tp1241
a(I1832
I142
tp1242
as(I414
I1975
tp1243
(lp1244
(I432
I1981
tp1245
a(I394
I1976
tp1246
asg818
(lp1247
(I344
I398
tp1248
a(I375
I382
tp1249
as(I1213
I1868
tp1250
(lp1251
(I1218
I1847
tp1252
ag1043
asg153
(lp1253
g151
as(I907
I1778
tp1254
(lp1255
(I889
I1788
tp1256
a(I924
I1769
tp1257
as(I67
I251
tp1258
(lp1259
(I87
I246
tp1260
a(I46
I255
tp1261
as(I1597
I593
tp1262
(lp1263
(I1587
I574
tp1264
ag326
as(I664
I1715
tp1265
(lp1266
(I672
I1696
tp1267
a(I654
I1734
tp1268
as(I230
I1408
tp1269
(lp1270
(I243
I1390
tp1271
a(I220
I1427
tp1272
as(I391
I306
tp1273
(lp1274
(I411
I310
tp1275
ag497
as(I235
I2007
tp1276
(lp1277
(I219
I1991
tp1278
a(I248
I2011
tp1279
as(I729
I1774
tp1280
(lp1281
(I722
I1795
tp1282
a(I736
I1753
tp1283
as(I1728
I543
tp1284
(lp1285
(I1737
I559
tp1286
a(I1746
I535
tp1287
a(I1714
I527
tp1288
as(I1748
I594
tp1289
(lp1290
(I1744
I576
tp1291
a(I1749
I612
tp1292
asg1082
(lp1293
(I1108
I239
tp1294
a(I1148
I256
tp1295
as(I89
I341
tp1296
(lp1297
(I69
I333
tp1298
a(I110
I342
tp1299
as(I368
I1656
tp1300
(lp1301
(I387
I1646
tp1302
a(I346
I1654
tp1303
asg849
(lp1304
(I200
I1526
tp1305
a(I160
I1539
tp1306
as(I1809
I198
tp1307
(lp1308
(I1807
I217
tp1309
a(I1813
I181
tp1310
asg748
(lp1311
(I1406
I1418
tp1312
as(I1319
I1985
tp1313
(lp1314
(I1338
I1975
tp1315
a(I1317
I1992
tp1316
a(I1301
I1996
tp1317
as(I588
I83
tp1318
(lp1319
(I603
I69
tp1320
a(I573
I97
tp1321
as(I697
I1645
tp1322
(lp1323
(I685
I1655
tp1324
a(I712
I1642
tp1325
as(I520
I499
tp1326
(lp1327
(I498
I497
tp1328
a(I542
I502
tp1329
as(I1271
I1376
tp1330
(lp1331
(I1271
I1393
tp1332
a(I1270
I1359
tp1333
as(I1351
I1436
tp1334
(lp1335
(I1352
I1455
tp1336
a(I1350
I1416
tp1337
as(I158
I1837
tp1338
(lp1339
(I170
I1849
tp1340
a(I147
I1826
tp1341
as(I1292
I365
tp1342
(lp1343
(I1277
I365
tp1344
a(I1307
I365
tp1345
as(I1886
I625
tp1346
(lp1347
(I1865
I617
tp1348
a(I1908
I622
tp1349
asg541
(lp1350
g539
a(I195
I1853
tp1351
a(I191
I1817
tp1352
as(I1228
I1395
tp1353
(lp1354
(I1207
I1398
tp1355
a(I1250
I1394
tp1356
as(I1095
I1575
tp1357
(lp1358
(I1097
I1555
tp1359
a(I1098
I1595
tp1360
as(I1107
I1516
tp1361
(lp1362
(I1111
I1497
tp1363
a(I1102
I1536
tp1364
as(I454
I1752
tp1365
(lp1366
(I474
I1756
tp1367
a(I434
I1748
tp1368
as(I1358
I1262
tp1369
(lp1370
(I1343
I1262
tp1371
ag31
as(I1787
I456
tp1372
(lp1373
(I1770
I444
tp1374
a(I1796
I475
tp1375
as(I1972
I622
tp1376
(lp1377
(I1951
I616
tp1378
a(I1985
I639
tp1379
as(I194
I391
tp1380
(lp1381
(I176
I385
tp1382
ag990
as(I417
I566
tp1383
(lp1384
(I413
I583
tp1385
ag1133
as(I1766
I395
tp1386
(lp1387
(I1787
I393
tp1388
a(I1745
I397
tp1389
as(I257
I45
tp1390
(lp1391
(I244
I62
tp1392
as(I1055
I1797
tp1393
(lp1394
(I1049
I1789
tp1395
a(I1062
I1804
tp1396
as(I842
I220
tp1397
(lp1398
(I825
I230
tp1399
a(I853
I202
tp1400
as(I1683
I504
tp1401
(lp1402
(I1667
I497
tp1403
a(I1699
I513
tp1404
as(I873
I144
tp1405
(lp1406
(I863
I162
tp1407
a(I887
I129
tp1408
as(I1113
I1851
tp1409
(lp1410
(I1129
I1834
tp1411
a(I1098
I1867
tp1412
as(I252
I1934
tp1413
(lp1414
(I235
I1921
tp1415
a(I231
I1932
tp1416
a(I263
I1935
tp1417
a(I269
I1948
tp1418
as(I1897
I277
tp1419
(lp1420
(I1880
I264
tp1421
a(I1913
I292
tp1422
as(I76
I1981
tp1423
(lp1424
(I54
I1987
tp1425
ag1064
as(I1430
I668
tp1426
(lp1427
(I1450
I669
tp1428
ag434
as(I173
I1931
tp1429
(lp1430
(I192
I1951
tp1431
ag595
asg1078
(lp1432
(I1974
I248
tp1433
a(I2003
I282
tp1434
as(I808
I89
tp1435
(lp1436
(I791
I102
tp1437
a(I819
I71
tp1438
asg822
(lp1439
(I569
I416
tp1440
ag15
as(I492
I1693
tp1441
(lp1442
(I513
I1692
tp1443
a(I474
I1689
tp1444
a(I480
I1705
tp1445
as(I1839
I940
tp1446
(lp1447
(I1860
I935
tp1448
ag61
asg317
(lp1449
(I1319
I2000
tp1450
as(I1353
I1474
tp1451
(lp1452
(I1354
I1494
tp1453
a(I1352
I1455
tp1454
as(I1962
I1900
tp1455
(lp1456
(I1943
I1893
tp1457
a(I1977
I1914
tp1458
as(I143
I459
tp1459
(lp1460
(I132
I476
tp1461
a(I142
I479
tp1462
asg107
(lp1463
(I906
I1731
tp1464
a(I938
I1707
tp1465
as(I213
I590
tp1466
(lp1467
(I197
I601
tp1468
a(I216
I571
tp1469
asg961
(lp1470
(I425
I1625
tp1471
a(I387
I1646
tp1472
as(I1781
I970
tp1473
(lp1474
(I1800
I960
tp1475
a(I1761
I980
tp1476
as(I110
I1987
tp1477
(lp1478
(I104
I1988
tp1479
a(I116
I1987
tp1480
as(I453
I1820
tp1481
(lp1482
(I474
I1817
tp1483
a(I433
I1819
tp1484
as(I1296
I299
tp1485
(lp1486
(I1284
I283
tp1487
a(I1308
I315
tp1488
as(I69
I453
tp1489
(lp1490
(I67
I476
tp1491
a(I66
I432
tp1492
as(I675
I1024
tp1493
(lp1494
(I694
I1021
tp1495
as(I1377
I141
tp1496
(lp1497
(I1379
I161
tp1498
a(I1374
I120
tp1499
as(I1212
I1519
tp1500
(lp1501
(I1196
I1520
tp1502
a(I1228
I1519
tp1503
as(I425
I330
tp1504
(lp1505
(I434
I349
tp1506
a(I428
I324
tp1507
ag737
a(I446
I334
tp1508
as(I209
I88
tp1509
(lp1510
(I193
I101
tp1511
a(I226
I76
tp1512
a(I231
I89
tp1513
as(I1234
I38
tp1514
(lp1515
(I1242
I58
tp1516
asg272
(lp1517
(I1372
I1492
tp1518
ag362
ag1451
as(I111
I730
tp1519
(lp1520
(I122
I749
tp1521
a(I109
I709
tp1522
as(I1951
I616
tp1523
(lp1524
(I1929
I618
tp1525
ag1376
as(I1740
I749
tp1526
(lp1527
(I1729
I761
tp1528
ag892
as(I157
I1276
tp1529
(lp1530
(I136
I1280
tp1531
a(I167
I1293
tp1532
as(I219
I646
tp1533
(lp1534
(I222
I626
tp1535
a(I217
I667
tp1536
as(I1088
I1356
tp1537
(lp1538
(I1109
I1353
tp1539
a(I1066
I1357
tp1540
asg1167
(lp1541
(I1490
I1924
tp1542
a(I1519
I1891
tp1543
as(I178
I113
tp1544
(lp1545
(I193
I101
tp1546
a(I168
I130
tp1547
as(I1825
I412
tp1548
(lp1549
(I1843
I424
tp1550
a(I1807
I400
tp1551
as(I900
I1912
tp1552
(lp1553
(I922
I1916
tp1554
ag1052
as(I373
I1740
tp1555
(lp1556
(I393
I1741
tp1557
a(I352
I1737
tp1558
as(I1466
I479
tp1559
(lp1560
(I1475
I459
tp1561
ag761
as(I185
I651
tp1562
(lp1563
(I203
I659
tp1564
a(I166
I648
tp1565
as(I1621
I693
tp1566
(lp1567
(I1639
I702
tp1568
as(I1805
I1806
tp1569
(lp1570
(I1805
I1823
tp1571
ag418
as(I1736
I491
tp1572
(lp1573
(I1754
I479
tp1574
a(I1717
I502
tp1575
as(I63
I496
tp1576
(lp1577
(I67
I476
tp1578
a(I58
I515
tp1579
as(I124
I904
tp1580
(lp1581
(I131
I922
tp1582
a(I117
I885
tp1583
as(I162
I1335
tp1584
(lp1585
(I162
I1314
tp1586
a(I181
I1339
tp1587
as(I1362
I1340
tp1588
(lp1589
(I1347
I1340
tp1590
a(I1378
I1340
tp1591
as(I723
I961
tp1592
(lp1593
(I724
I969
tp1594
a(I726
I955
tp1595
asg1104
(lp1596
(I729
I1370
tp1597
a(I708
I1356
tp1598
ag1113
as(I1664
I759
tp1599
(lp1600
(I1681
I771
tp1601
a(I1653
I741
tp1602
as(I544
I1665
tp1603
(lp1604
(I529
I1680
tp1605
a(I559
I1651
tp1606
as(I1228
I1519
tp1607
(lp1608
(I1224
I1502
tp1609
a(I1212
I1519
tp1610
a(I1238
I1517
tp1611
ag547
as(I1179
I1112
tp1612
(lp1613
(I1201
I1110
tp1614
a(I1157
I1115
tp1615
as(I1985
I397
tp1616
(lp1617
(I1977
I376
tp1618
a(I1990
I417
tp1619
as(I351
I1840
tp1620
(lp1621
(I351
I1856
tp1622
as(I1129
I1993
tp1623
(lp1624
(I1144
I1977
tp1625
a(I1114
I2008
tp1626
as(I1851
I1916
tp1627
(lp1628
(I1832
I1910
tp1629
a(I1851
I1938
tp1630
asg401
(lp1631
(I1268
I246
tp1632
a(I1287
I222
tp1633
as(I458
I1661
tp1634
(lp1635
(I440
I1666
tp1636
a(I477
I1656
tp1637
as(I554
I1750
tp1638
(lp1639
(I568
I1734
tp1640
a(I540
I1766
tp1641
as(I349
I731
tp1642
(lp1643
(I341
I712
tp1644
a(I354
I751
tp1645
asg834
(lp1646
(I1097
I744
tp1647
a(I1077
I764
tp1648
as(I1276
I625
tp1649
(lp1650
(I1288
I625
tp1651
a(I1276
I646
tp1652
a(I1256
I625
tp1653
as(I1066
I1898
tp1654
(lp1655
(I1083
I1883
tp1656
a(I1049
I1912
tp1657
as(I1086
I1271
tp1658
(lp1659
(I1066
I1271
tp1660
a(I1106
I1271
tp1661
asg365
(lp1662
(I1360
I1515
tp1663
a(I1384
I1551
tp1664
as(I122
I749
tp1665
(lp1666
(I134
I767
tp1667
ag1519
asg406
(lp1668
(I1173
I1945
tp1669
a(I1144
I1977
tp1670
as(I1830
I522
tp1671
(lp1672
(I1833
I543
tp1673
a(I1825
I503
tp1674
asg1375
(lp1675
(I1787
I456
tp1676
a(I1813
I486
tp1677
a(I1775
I472
tp1678
as(I1519
I737
tp1679
(lp1680
(I1516
I716
tp1681
a(I1535
I749
tp1682
as(I839
I868
tp1683
(lp1684
(I818
I864
tp1685
a(I859
I859
tp1686
as(I681
I1931
tp1687
(lp1688
(I697
I1937
tp1689
ag850
as(I1378
I1827
tp1690
(lp1691
(I1393
I1839
tp1692
a(I1371
I1808
tp1693
as(I1169
I260
tp1694
(lp1695
(I1148
I256
tp1696
a(I1191
I260
tp1697
as(I1975
I153
tp1698
(lp1699
(I1992
I165
tp1700
a(I1958
I141
tp1701
as(I1530
I1984
tp1702
(lp1703
(I1546
I1968
tp1704
a(I1514
I1999
tp1705
as(I1188
I712
tp1706
(lp1707
(I1177
I695
tp1708
ag790
as(I157
I385
tp1709
(lp1710
(I139
I390
tp1711
a(I176
I385
tp1712
as(I731
I491
tp1713
(lp1714
(I709
I491
tp1715
a(I753
I492
tp1716
as(I379
I1342
tp1717
(lp1718
(I362
I1328
tp1719
a(I395
I1356
tp1720
as(I350
I564
tp1721
(lp1722
(I370
I560
tp1723
a(I328
I563
tp1724
asg684
(lp1725
(I1749
I671
tp1726
ag201
as(I258
I475
tp1727
(lp1728
(I280
I477
tp1729
a(I236
I481
tp1730
as(I1144
I1819
tp1731
(lp1732
(I1159
I1803
tp1733
a(I1129
I1834
tp1734
asg1734
(lp1735
(I1144
I1819
tp1736
ag1409
as(I1790
I540
tp1737
(lp1738
(I1783
I521
tp1739
a(I1794
I561
tp1740
as(I460
I735
tp1741
(lp1742
(I475
I752
tp1743
as(I708
I1356
tp1744
(lp1745
(I710
I1337
tp1746
a(I708
I1374
tp1747
as(I853
I1829
tp1748
(lp1749
(I857
I1839
tp1750
a(I871
I1820
tp1751
a(I839
I1813
tp1752
asg1720
(lp1753
(I379
I1342
tp1754
a(I406
I1373
tp1755
as(I1107
I1150
tp1756
(lp1757
(I1118
I1132
tp1758
a(I1102
I1171
tp1759
as(I1174
I1763
tp1760
(lp1761
(I1170
I1784
tp1762
ag11
as(I208
I1446
tp1763
(lp1764
(I220
I1427
tp1765
a(I196
I1464
tp1766
as(I1470
I705
tp1767
(lp1768
(I1471
I726
tp1769
ag1105
as(I685
I1655
tp1770
(lp1771
(I678
I1675
tp1772
a(I688
I1644
tp1773
ag1322
as(I750
I920
tp1774
(lp1775
(I738
I937
tp1776
ag640
as(I1140
I352
tp1777
(lp1778
(I1119
I358
tp1779
a(I1161
I346
tp1780
asg193
(lp1781
(I1691
I329
tp1782
ag901
as(I754
I1968
tp1783
(lp1784
(I774
I1975
tp1785
a(I734
I1959
tp1786
as(I1201
I1110
tp1787
(lp1788
(I1222
I1108
tp1789
ag1612
as(I1295
I1907
tp1790
(lp1791
(I1305
I1893
tp1792
a(I1279
I1919
tp1793
as(I212
I1039
tp1794
(lp1795
(I207
I1054
tp1796
as(I1348
I1729
tp1797
(lp1798
(I1354
I1749
tp1799
a(I1343
I1710
tp1800
as(I272
I1891
tp1801
(lp1802
(I273
I1905
tp1803
a(I292
I1891
tp1804
a(I254
I1892
tp1805
a(I272
I1870
tp1806
asg1476
(lp1807
(I1781
I970
tp1808
a(I1741
I988
tp1809
as(I288
I1948
tp1810
(lp1811
(I273
I1938
tp1812
a(I303
I1959
tp1813
as(I227
I952
tp1814
(lp1815
(I220
I933
tp1816
a(I234
I970
tp1817
as(I1214
I597
tp1818
(lp1819
(I1218
I617
tp1820
as(I60
I1898
tp1821
(lp1822
(I81
I1898
tp1823
a(I40
I1899
tp1824
as(I1024
I1197
tp1825
(lp1826
(I1025
I1215
tp1827
a(I1006
I1197
tp1828
ag396
as(I1132
I1555
tp1829
(lp1830
(I1124
I1567
tp1831
a(I1140
I1544
tp1832
as(I981
I163
tp1833
(lp1834
(I968
I145
tp1835
a(I995
I180
tp1836
as(I841
I702
tp1837
(lp1838
(I822
I693
tp1839
a(I844
I722
tp1840
asg296
(lp1841
(I139
I941
tp1842
ag383
as(I478
I1497
tp1843
(lp1844
(I460
I1507
tp1845
a(I490
I1480
tp1846
as(I39
I957
tp1847
(lp1848
(I57
I950
tp1849
as(I799
I166
tp1850
(lp1851
(I789
I183
tp1852
a(I809
I149
tp1853
as(I714
I1950
tp1854
(lp1855
(I734
I1959
tp1856
a(I697
I1937
tp1857
asg997
(lp1858
(I1181
I109
tp1859
a(I1144
I87
tp1860
as(I1379
I161
tp1861
(lp1862
(I1378
I182
tp1863
ag1496
as(I170
I1849
tp1864
(lp1865
(I178
I1856
tp1866
a(I183
I1847
tp1867
ag1338
as(I522
I751
tp1868
(lp1869
(I539
I762
tp1870
a(I505
I741
tp1871
as(I728
I1005
tp1872
(lp1873
(I729
I987
tp1874
a(I712
I1015
tp1875
as(I786
I545
tp1876
(lp1877
(I766
I552
tp1878
ag42
as(I1106
I1656
tp1879
(lp1880
(I1106
I1635
tp1881
ag7
ag753
as(I86
I1771
tp1882
(lp1883
(I69
I1757
tp1884
a(I103
I1785
tp1885
asg716
(lp1886
(I1784
I716
tp1887
a(I1818
I739
tp1888
as(I1161
I1190
tp1889
(lp1890
(I1141
I1190
tp1891
ag801
as(I352
I1910
tp1892
(lp1893
(I353
I1933
tp1894
a(I352
I1888
tp1895
asg1543
(lp1896
(I1502
I1905
tp1897
a(I1539
I1884
tp1898
as(I107
I1020
tp1899
(lp1900
(I125
I1013
tp1901
a(I88
I1027
tp1902
as(I154
I517
tp1903
(lp1904
(I141
I500
tp1905
a(I174
I524
tp1906
as(I384
I460
tp1907
(lp1908
(I386
I441
tp1909
a(I381
I481
tp1910
asg810
(lp1911
(I218
I1893
tp1912
a(I194
I1870
tp1913
as(I317
I654
tp1914
(lp1915
(I324
I634
tp1916
a(I320
I675
tp1917
as(I1113
I1429
tp1918
(lp1919
(I1114
I1445
tp1920
a(I1112
I1410
tp1921
a(I1135
I1428
tp1922
a(I1092
I1430
tp1923
as(I1323
I1639
tp1924
(lp1925
(I1318
I1621
tp1926
a(I1327
I1656
tp1927
as(I1749
I186
tp1928
(lp1929
(I1770
I186
tp1930
a(I1733
I172
tp1931
as(I1916
I733
tp1932
(lp1933
(I1920
I751
tp1934
a(I1905
I718
tp1935
asg740
(lp1936
(I417
I343
tp1937
a(I401
I370
tp1938
as(I263
I1997
tp1939
(lp1940
(I295
I1996
tp1941
a(I251
I1979
tp1942
ag1200
as(I937
I689
tp1943
(lp1944
(I917
I683
tp1945
a(I955
I697
tp1946
as(I1392
I614
tp1947
(lp1948
(I1410
I608
tp1949
a(I1374
I620
tp1950
as(I1319
I1262
tp1951
(lp1952
(I1331
I1262
tp1953
as(I603
I1460
tp1954
(lp1955
(I605
I1483
tp1956
a(I601
I1438
tp1957
as(I1302
I408
tp1958
(lp1959
(I1282
I416
tp1960
a(I1307
I387
tp1961
as(I1547
I360
tp1962
(lp1963
(I1551
I342
tp1964
a(I1541
I378
tp1965
as(I1332
I1673
tp1966
(lp1967
(I1327
I1656
tp1968
a(I1337
I1690
tp1969
as(I1910
I1866
tp1970
(lp1971
(I1930
I1865
tp1972
a(I1889
I1864
tp1973
as(I1822
I845
tp1974
(lp1975
(I1843
I841
tp1976
a(I1802
I836
tp1977
asg883
(lp1978
(I765
I214
tp1979
a(I789
I183
tp1980
asg96
(lp1981
(I1265
I1204
tp1982
a(I1264
I1172
tp1983
a(I1282
I1180
tp1984
as(I825
I230
tp1985
(lp1986
(I805
I225
tp1987
ag1397
as(I1037
I1830
tp1988
(lp1989
(I1024
I1842
tp1990
a(I1050
I1817
tp1991
as(I501
I1464
tp1992
(lp1993
(I490
I1480
tp1994
a(I512
I1447
tp1995
as(I1392
I467
tp1996
(lp1997
(I1387
I448
tp1998
a(I1401
I484
tp1999
asg1484
(lp2000
(I453
I1820
tp2001
a(I413
I1813
tp2002
as(I470
I191
tp2003
(lp2004
(I453
I202
tp2005
a(I487
I181
tp2006
asg280
(lp2007
(I150
I1035
tp2008
a(I153
I1073
tp2009
as(I132
I476
tp2010
(lp2011
(I113
I486
tp2012
ag1459
asg979
(lp2013
g977
ag1307
asg1268
(lp2014
(I664
I1715
tp2015
a(I641
I1751
tp2016
as(I1468
I308
tp2017
(lp2018
(I1473
I286
tp2019
a(I1465
I330
tp2020
asg582
(lp2021
(I351
I313
tp2022
ag564
asg373
(lp2023
(I64
I1368
tp2024
asg1000
(lp2025
(I949
I1933
tp2026
a(I978
I1958
tp2027
as(I430
I317
tp2028
(lp2029
(I428
I324
tp2030
a(I411
I310
tp2031
a(I437
I298
tp2032
as(I216
I532
tp2033
(lp2034
(I216
I551
tp2035
a(I216
I512
tp2036
as(I123
I1431
tp2037
(lp2038
(I126
I1410
tp2039
a(I123
I1452
tp2040
asg1234
(lp2041
(I419
I1211
tp2042
a(I430
I1168
tp2043
as(I1470
I1698
tp2044
(lp2045
(I1461
I1679
tp2046
a(I1479
I1718
tp2047
as(I728
I1647
tp2048
(lp2049
(I712
I1642
tp2050
a(I738
I1666
tp2051
a(I711
I1637
tp2052
as(I444
I1717
tp2053
(lp2054
(I462
I1711
tp2055
a(I427
I1726
tp2056
as(I158
I668
tp2057
(lp2058
(I142
I683
tp2059
a(I166
I648
tp2060
as(I286
I1962
tp2061
(lp2062
(I269
I1948
tp2063
a(I302
I1978
tp2064
asg1602
(lp2065
(I1664
I759
tp2066
a(I1648
I721
tp2067
as(I1447
I106
tp2068
(lp2069
(I1451
I127
tp2070
a(I1443
I85
tp2071
as(I1787
I393
tp2072
(lp2073
(I1807
I400
tp2074
ag1386
as(I96
I829
tp2075
(lp2076
(I88
I809
tp2077
a(I103
I849
tp2078
as(I1229
I1602
tp2079
(lp2080
(I1228
I1581
tp2081
as(I1083
I1883
tp2082
(lp2083
(I1098
I1867
tp2084
ag1654
asg349
(lp2085
(I1686
I444
tp2086
a(I1728
I442
tp2087
as(I1461
I1878
tp2088
(lp2089
(I1445
I1867
tp2090
a(I1469
I1897
tp2091
as(I188
I1891
tp2092
(lp2093
(I199
I1911
tp2094
a(I173
I1877
tp2095
as(I1218
I1847
tp2096
(lp2097
(I1223
I1825
tp2098
ag1250
as(I393
I1808
tp2099
(lp2100
(I413
I1813
tp2101
ag46
as(I101
I303
tp2102
(lp2103
(I111
I317
tp2104
a(I85
I295
tp2105
as(I82
I1833
tp2106
(lp2107
(I97
I1849
tp2108
ag603
as(I366
I1698
tp2109
(lp2110
(I386
I1696
tp2111
a(I345
I1694
tp2112
as(I1452
I149
tp2113
(lp2114
(I1452
I171
tp2115
a(I1451
I127
tp2116
as(I2008
I179
tp2117
(lp2118
(I1992
I165
tp2119
as(I741
I170
tp2120
(lp2121
(I723
I181
tp2122
a(I752
I151
tp2123
as(I1494
I429
tp2124
(lp2125
(I1475
I438
tp2126
ag285
as(I1558
I305
tp2127
(lp2128
(I1555
I324
tp2129
a(I1557
I287
tp2130
asg1136
(lp2131
(I417
I547
tp2132
a(I413
I510
tp2133
as(I128
I1798
tp2134
(lp2135
(I112
I1806
tp2136
a(I147
I1796
tp2137
asg259
(lp2138
(I1901
I111
tp2139
a(I1859
I111
tp2140
asg1127
(lp2141
(I1511
I188
tp2142
a(I1544
I162
tp2143
as(I432
I493
tp2144
(lp2145
(I410
I492
tp2146
a(I454
I493
tp2147
as(I87
I1575
tp2148
(lp2149
(I96
I1593
tp2150
a(I78
I1563
tp2151
a(I104
I1579
tp2152
as(I431
I1228
tp2153
(lp2154
(I451
I1237
tp2155
ag1231
as(I1303
I165
tp2156
(lp2157
(I1303
I185
tp2158
a(I1301
I144
tp2159
as(I1915
I693
tp2160
(lp2161
(I1896
I694
tp2162
a(I1933
I697
tp2163
as(I1595
I908
tp2164
(lp2165
(I1575
I911
tp2166
ag1208
as(I125
I695
tp2167
(lp2168
(I109
I709
tp2169
a(I142
I683
tp2170
as(I111
I1960
tp2171
(lp2172
(I92
I1968
tp2173
ag929
as(I180
I470
tp2174
(lp2175
(I178
I489
tp2176
as(I366
I836
tp2177
(lp2178
(I363
I815
tp2179
a(I369
I857
tp2180
as(I43
I1353
tp2181
(lp2182
(I64
I1349
tp2183
a(I52
I1298
tp2184
asg60
(lp2185
g58
a(I424
I1451
tp2186
as(I1225
I688
tp2187
(lp2188
(I1215
I671
tp2189
a(I1245
I692
tp2190
as(I1371
I100
tp2191
(lp2192
(I1374
I120
tp2193
as(I218
I176
tp2194
(lp2195
(I240
I175
tp2196
a(I196
I176
tp2197
as(I1928
I859
tp2198
(lp2199
(I1911
I857
tp2200
a(I1943
I851
tp2201
asg1131
(lp2202
(I1027
I1272
tp2203
a(I1066
I1271
tp2204
as(I1575
I911
tp2205
(lp2206
(I1559
I899
tp2207
ag2164
as(I125
I1854
tp2208
(lp2209
(I140
I1870
tp2210
a(I109
I1838
tp2211
as(I307
I890
tp2212
(lp2213
(I327
I885
tp2214
a(I288
I899
tp2215
as(I1966
I358
tp2216
(lp2217
(I1954
I340
tp2218
a(I1977
I376
tp2219
as(I1848
I1996
tp2220
(lp2221
(I1848
I1978
tp2222
as(I1189
I1346
tp2223
(lp2224
(I1186
I1346
tp2225
a(I1192
I1346
tp2226
asg1547
(lp2227
(I178
I113
tp2228
a(I167
I150
tp2229
asg720
(lp2230
(I1434
I1851
tp2231
a(I1475
I1850
tp2232
as(I159
I1519
tp2233
(lp2234
(I172
I1501
tp2235
a(I142
I1532
tp2236
as(I184
I1635
tp2237
(lp2238
(I176
I1649
tp2239
a(I163
I1639
tp2240
asg2032
(lp2241
(I430
I317
tp2242
ag1186
as(I310
I552
tp2243
(lp2244
(I328
I563
tp2245
a(I292
I540
tp2246
as(I1844
I242
tp2247
(lp2248
(I1823
I236
tp2249
a(I1862
I252
tp2250
as(I136
I336
tp2251
(lp2252
(I116
I334
tp2253
a(I155
I340
tp2254
as(I1649
I177
tp2255
(lp2256
(I1658
I195
tp2257
a(I1639
I158
tp2258
asg704
(lp2259
(I508
I255
tp2260
a(I552
I249
tp2261
as(I1661
I553
tp2262
(lp2263
(I1643
I556
tp2264
a(I1676
I564
tp2265
asg308
(lp2266
(I1593
I493
tp2267
a(I1552
I505
tp2268
as(I858
I805
tp2269
(lp2270
(I871
I817
tp2271
a(I863
I787
tp2272
asg1840
(lp2273
(I841
I702
tp2274
a(I833
I740
tp2275
as(I1770
I444
tp2276
(lp2277
(I1749
I440
tp2278
ag1372
asg1050
(lp2279
(I1051
I1769
tp2280
a(I1065
I1745
tp2281
asg728
(lp2282
(I1787
I1910
tp2283
a(I1832
I1910
tp2284
as(I686
I1919
tp2285
(lp2286
(I697
I1937
tp2287
a(I682
I1898
tp2288
asg1310
(lp2289
(I1809
I198
tp2290
a(I1791
I184
tp2291
a(I1818
I171
tp2292
as(I1048
I1479
tp2293
(lp2294
(I1070
I1478
tp2295
a(I1034
I1469
tp2296
as(I1376
I281
tp2297
(lp2298
(I1389
I298
tp2299
a(I1367
I263
tp2300
as(I1875
I356
tp2301
(lp2302
(I1860
I341
tp2303
a(I1888
I373
tp2304
as(I81
I789
tp2305
(lp2306
(I73
I769
tp2307
a(I88
I809
tp2308
as(I1551
I582
tp2309
(lp2310
(I1534
I592
tp2311
a(I1568
I574
tp2312
asg173
(lp2313
g170
a(I266
I1963
tp2314
as(I161
I1949
tp2315
(lp2316
(I150
I1937
tp2317
a(I187
I1961
tp2318
as(I1026
I1253
tp2319
(lp2320
(I1026
I1234
tp2321
ag1128
as(I220
I933
tp2322
(lp2323
(I213
I915
tp2324
ag1814
as(I1556
I1912
tp2325
(lp2326
(I1572
I1897
tp2327
a(I1540
I1927
tp2328
as(I247
I412
tp2329
(lp2330
(I247
I395
tp2331
a(I252
I428
tp2332
as(I1228
I1804
tp2333
(lp2334
(I1233
I1783
tp2335
a(I1223
I1825
tp2336
as(I476
I495
tp2337
(lp2338
(I454
I493
tp2339
a(I498
I497
tp2340
as(I71
I1989
tp2341
(lp2342
(I88
I1989
tp2343
a(I54
I1987
tp2344
as(I2009
I1012
tp2345
(lp2346
(I1988
I1013
tp2347
as(I1279
I64
tp2348
(lp2349
(I1287
I83
tp2350
a(I1272
I45
tp2351
as(I1980
I1670
tp2352
(lp2353
(I1959
I1665
tp2354
a(I1999
I1680
tp2355
as(I1923
I206
tp2356
(lp2357
(I1904
I194
tp2358
a(I1941
I219
tp2359
as(I1118
I1132
tp2360
(lp2361
(I1137
I1121
tp2362
ag1756
as(I1341
I434
tp2363
(lp2364
(I1354
I450
tp2365
a(I1320
I434
tp2366
as(I1102
I1616
tp2367
(lp2368
(I1106
I1635
tp2369
a(I1098
I1595
tp2370
as(I1699
I1910
tp2371
(lp2372
(I1681
I1898
tp2373
a(I1721
I1912
tp2374
asg99
(lp2375
g97
a(I1970
I822
tp2376
as(I581
I493
tp2377
(lp2378
(I563
I504
tp2379
a(I603
I491
tp2380
asg708
(lp2381
(I271
I1719
tp2382
a(I250
I1682
tp2383
as(I440
I1666
tp2384
(lp2385
(I422
I1673
tp2386
ag1634
asg414
(lp2387
(I1422
I579
tp2388
a(I1435
I550
tp2389
a(I1409
I556
tp2390
as(I1051
I1429
tp2391
(lp2392
(I1071
I1431
tp2393
a(I1038
I1414
tp2394
as(I94
I1044
tp2395
(lp2396
(I100
I1061
tp2397
a(I88
I1027
tp2398
as(I1526
I815
tp2399
(lp2400
(I1546
I821
tp2401
a(I1504
I816
tp2402
as(I707
I1545
tp2403
(lp2404
(I710
I1523
tp2405
a(I704
I1567
tp2406
asg1491
(lp2407
g1489
ag1576
a(I80
I463
tp2408
as(I1299
I205
tp2409
(lp2410
(I1287
I222
tp2411
a(I1303
I185
tp2412
asg255
(lp2413
(I957
I126
tp2414
ag1833
as(I608
I1527
tp2415
(lp2416
(I609
I1548
tp2417
ag194
asg116
(lp2418
(I401
I454
tp2419
a(I410
I492
tp2420
asg1417
(lp2421
(I252
I1934
tp2422
a(I273
I1938
tp2423
as(I233
I885
tp2424
(lp2425
(I247
I880
tp2426
a(I219
I890
tp2427
as(I1595
I127
tp2428
(lp2429
(I1615
I125
tp2430
ag1023
as(I73
I988
tp2431
(lp2432
(I65
I969
tp2433
a(I80
I1007
tp2434
asg789
(lp2435
(I1312
I585
tp2436
a(I1337
I550
tp2437
as(I1856
I2001
tp2438
(lp2439
(I1856
I1980
tp2440
asg177
(lp2441
(I96
I1297
tp2442
a(I136
I1280
tp2443
as(I1163
I634
tp2444
(lp2445
(I1158
I613
tp2446
a(I1167
I654
tp2447
as(I170
I1902
tp2448
(lp2449
(I185
I1918
tp2450
a(I155
I1886
tp2451
as(I331
I1300
tp2452
(lp2453
(I321
I1281
tp2454
a(I346
I1315
tp2455
as(I1546
I1968
tp2456
(lp2457
(I1564
I1956
tp2458
ag1702
as(I552
I228
tp2459
(lp2460
(I552
I249
tp2461
a(I551
I207
tp2462
as(I1659
I1792
tp2463
(lp2464
(I1646
I1776
tp2465
a(I1666
I1812
tp2466
as(I53
I1743
tp2467
(lp2468
(I36
I1728
tp2469
a(I69
I1757
tp2470
asg845
(lp2471
(I321
I1621
tp2472
a(I307
I1581
tp2473
asg1674
(lp2474
(I1830
I522
tp2475
ag1221
as(I205
I1070
tp2476
(lp2477
(I207
I1054
tp2478
a(I204
I1086
tp2479
asg879
(lp2480
(I1279
I743
tp2481
a(I1237
I749
tp2482
a(I1259
I770
tp2483
asg949
(lp2484
(I938
I1811
tp2485
a(I968
I1795
tp2486
as(I1852
I1960
tp2487
(lp2488
(I1848
I1978
tp2489
a(I1856
I1980
tp2490
a(I1851
I1938
tp2491
asg185
(lp2492
(I339
I620
tp2493
ag1914
as(I1032
I1926
tp2494
(lp2495
(I1049
I1912
tp2496
a(I1014
I1939
tp2497
asg2268
(lp2498
(I1573
I499
tp2499
a(I1532
I512
tp2500
as(I1991
I439
tp2501
(lp2502
(I1990
I417
tp2503
ag245
as(I729
I573
tp2504
(lp2505
(I711
I586
tp2506
a(I747
I561
tp2507
asg1906
(lp2508
(I154
I517
tp2509
a(I176
I507
tp2510
a(I196
I521
tp2511
as(I366
I260
tp2512
(lp2513
(I385
I260
tp2514
a(I347
I264
tp2515
asg1185
(lp2516
(I877
I1858
tp2517
a(I857
I1839
tp2518
a(I889
I1834
tp2519
as(I244
I62
tp2520
(lp2521
(I226
I76
tp2522
ag1390
as(I1350
I1397
tp2523
(lp2524
(I1350
I1416
tp2525
a(I1349
I1378
tp2526
as(I906
I82
tp2527
(lp2528
g732
a(I913
I78
tp2529
a(I911
I66
tp2530
as(I106
I622
tp2531
(lp2532
(I112
I638
tp2533
a(I99
I606
tp2534
asg2366
(lp2535
(I1341
I434
tp2536
a(I1298
I439
tp2537
as(I252
I800
tp2538
(lp2539
(I244
I779
tp2540
a(I259
I819
tp2541
as(I516
I1890
tp2542
(lp2543
(I535
I1882
tp2544
a(I495
I1892
tp2545
as(I1587
I574
tp2546
(lp2547
(I1568
I574
tp2548
a(I1585
I555
tp2549
ag1262
as(I1195
I1417
tp2550
(lp2551
(I1179
I1426
tp2552
a(I1207
I1398
tp2553
asg660
(lp2554
(I511
I331
tp2555
ag260
as(I1378
I981
tp2556
(lp2557
(I1386
I960
tp2558
a(I1370
I1000
tp2559
as(I1856
I557
tp2560
(lp2561
(I1851
I577
tp2562
a(I1865
I537
tp2563
asg1828
(lp2564
(I1024
I1197
tp2565
a(I987
I1197
tp2566
as(I1713
I883
tp2567
(lp2568
(I1728
I897
tp2569
a(I1692
I878
tp2570
asg2370
(lp2571
(I1102
I1616
tp2572
a(I1095
I1575
tp2573
a(I1110
I1589
tp2574
asg311
(lp2575
g309
ag2223
ag50
as(I1795
I602
tp2576
(lp2577
(I1795
I581
tp2578
a(I1795
I622
tp2579
asg2332
(lp2580
(I247
I412
tp2581
a(I252
I446
tp2582
as(I164
I798
tp2583
(lp2584
(I179
I813
tp2585
a(I149
I782
tp2586
asg2344
(lp2587
(I71
I1989
tp2588
a(I73
I1978
tp2589
ag1423
ag167
as(I1174
I1812
tp2590
(lp2591
(I1167
I1808
tp2592
as(I539
I762
tp2593
(lp2594
(I558
I764
tp2595
ag1868
as(I1071
I1720
tp2596
(lp2597
(I1056
I1719
tp2598
asg586
(lp2599
(I1519
I604
tp2600
ag147
as(I37
I1785
tp2601
(lp2602
g606
a(I43
I1818
tp2603
as(I1270
I231
tp2604
(lp2605
(I1287
I222
tp2606
a(I1254
I243
tp2607
asg623
(lp2608
(I165
I1793
tp2609
a(I147
I1826
tp2610
as(I462
I1711
tp2611
(lp2612
(I480
I1705
tp2613
ag2053
asg2443
(lp2614
(I116
I1290
tp2615
ag1529
as(I1578
I425
tp2616
(lp2617
(I1560
I437
tp2618
a(I1595
I411
tp2619
asg488
(lp2620
(I712
I1501
tp2621
ag2403
as(I1666
I1812
tp2622
(lp2623
(I1676
I1798
tp2624
a(I1659
I1792
tp2625
ag501
as(I67
I862
tp2626
(lp2627
(I48
I869
tp2628
a(I85
I856
tp2629
asg630
(lp2630
g628
a(I250
I1065
tp2631
a(I265
I1072
tp2632
as(I172
I1765
tp2633
(lp2634
(I158
I1752
tp2635
a(I185
I1778
tp2636
as(I217
I667
tp2637
(lp2638
(I210
I663
tp2639
a(I219
I646
tp2640
a(I235
I679
tp2641
as(I1870
I847
tp2642
(lp2643
(I1885
I832
tp2644
a(I1855
I864
tp2645
as(I402
I895
tp2646
(lp2647
(I384
I887
tp2648
ag4
as(I852
I109
tp2649
(lp2650
(I834
I118
tp2651
ag729
asg1492
(lp2652
(I69
I453
tp2653
a(I62
I411
tp2654
as(I1921
I120
tp2655
(lp2656
(I1939
I130
tp2657
ag256
as(I506
I782
tp2658
(lp2659
(I490
I767
tp2660
a(I525
I791
tp2661
as(I1874
I517
tp2662
(lp2663
(I1865
I537
tp2664
a(I1879
I497
tp2665
as(I1155
I592
tp2666
(lp2667
(I1156
I571
tp2668
a(I1158
I613
tp2669
as(I1951
I667
tp2670
(lp2671
(I1951
I686
tp2672
a(I1952
I648
tp2673
as(I367
I878
tp2674
(lp2675
(I369
I857
tp2676
a(I355
I893
tp2677
a(I346
I878
tp2678
a(I384
I887
tp2679
as(I162
I1314
tp2680
(lp2681
(I167
I1293
tp2682
ag1584
as(I1062
I1804
tp2683
(lp2684
(I1050
I1817
tp2685
a(I1074
I1792
tp2686
a(I1055
I1797
tp2687
as(I1430
I511
tp2688
(lp2689
(I1414
I500
tp2690
a(I1448
I519
tp2691
as(I608
I1570
tp2692
(lp2693
(I609
I1548
tp2694
a(I606
I1592
tp2695
asg2669
(lp2696
(I1155
I592
tp2697
ag2444
asg1412
(lp2698
(I1113
I1851
tp2699
ag2082
as(I1990
I1931
tp2700
(lp2701
(I1977
I1914
tp2702
ag458
asg1438
(lp2703
(I808
I89
tp2704
a(I821
I49
tp2705
asg121
(lp2706
(I442
I256
tp2707
a(I439
I216
tp2708
as(I1278
I1502
tp2709
(lp2710
(I1262
I1488
tp2711
a(I1289
I1520
tp2712
asg333
(lp2713
(I453
I1619
tp2714
ag1189
ag958
as(I1389
I298
tp2715
(lp2716
(I1401
I315
tp2717
ag2297
asg1368
(lp2718
(I454
I1752
tp2719
a(I414
I1745
tp2720
asg1611
(lp2721
(I1228
I1519
tp2722
a(I1245
I1509
tp2723
as(I1271
I1393
tp2724
(lp2725
(I1250
I1394
tp2726
ag1330
a(I1273
I1412
tp2727
as(I134
I650
tp2728
(lp2729
(I119
I655
tp2730
a(I150
I648
tp2731
as(I341
I712
tp2732
(lp2733
(I330
I693
tp2734
ag1642
asg1513
(lp2735
(I209
I88
tp2736
ag653
as(I342
I1001
tp2737
(lp2738
(I346
I1023
tp2739
a(I337
I979
tp2740
asg421
(lp2741
(I1818
I1791
tp2742
as(I351
I1044
tp2743
(lp2744
(I361
I1064
tp2745
a(I346
I1023
tp2746
as(I395
I369
tp2747
(lp2748
(I401
I370
tp2749
a(I388
I367
tp2750
as(I252
I990
tp2751
(lp2752
(I255
I1011
tp2753
a(I249
I969
tp2754
as(I1857
I748
tp2755
(lp2756
(I1836
I750
tp2757
a(I1878
I748
tp2758
as(I1126
I74
tp2759
(lp2760
(I1144
I87
tp2761
a(I1108
I61
tp2762
as(I179
I813
tp2763
(lp2764
(I186
I834
tp2765
ag2583
as(I180
I165
tp2766
(lp2767
(I167
I150
tp2768
a(I196
I176
tp2769
as(I293
I1148
tp2770
(lp2771
(I271
I1148
tp2772
a(I315
I1147
tp2773
as(I460
I1507
tp2774
(lp2775
(I445
I1520
tp2776
ag1843
as(I1364
I493
tp2777
(lp2778
(I1361
I513
tp2779
a(I1359
I471
tp2780
asg390
(lp2781
(I190
I1933
tp2782
ag422
asg2133
(lp2783
(I415
I528
tp2784
a(I410
I492
tp2785
as(I1601
I270
tp2786
(lp2787
(I1595
I289
tp2788
a(I1606
I249
tp2789
asg111
(lp2790
(I123
I1495
tp2791
a(I142
I1532
tp2792
as(I815
I1897
tp2793
(lp2794
(I837
I1899
tp2795
a(I793
I1895
tp2796
as(I806
I773
tp2797
(lp2798
(I813
I793
tp2799
a(I817
I755
tp2800
as(I1475
I438
tp2801
(lp2802
(I1467
I422
tp2803
a(I1475
I459
tp2804
a(I1497
I439
tp2805
ag2124
as(I1016
I1435
tp2806
(lp2807
(I1032
I1448
tp2808
a(I994
I1436
tp2809
asg538
(lp2810
(I622
I114
tp2811
ag897
as(I286
I392
tp2812
(lp2813
(I266
I392
tp2814
a(I305
I393
tp2815
as(I268
I1784
tp2816
(lp2817
(I270
I1805
tp2818
a(I250
I1773
tp2819
asg1697
(lp2820
(I1169
I260
tp2821
ag1004
as(I718
I64
tp2822
(lp2823
(I718
I43
tp2824
a(I716
I85
tp2825
as(I593
I1549
tp2826
(lp2827
(I609
I1548
tp2828
a(I577
I1550
tp2829
as(I502
I1601
tp2830
(lp2831
(I502
I1586
tp2832
a(I495
I1614
tp2833
as(I217
I491
tp2834
(lp2835
(I236
I481
tp2836
a(I216
I512
tp2837
as(I660
I185
tp2838
(lp2839
(I639
I185
tp2840
ag773
as(I353
I1933
tp2841
(lp2842
(I354
I1955
tp2843
ag1892
as(I1397
I1942
tp2844
(lp2845
(I1417
I1939
tp2846
a(I1377
I1953
tp2847
as(I1021
I215
tp2848
(lp2849
(I1009
I197
tp2850
a(I1033
I234
tp2851
as(I1545
I273
tp2852
(lp2853
(I1557
I287
tp2854
a(I1526
I268
tp2855
asg1716
(lp2856
(I731
I491
tp2857
a(I774
I498
tp2858
asg606
(lp2859
g603
ag2601
as(I1473
I286
tp2860
(lp2861
(I1479
I265
tp2862
ag2017
asg615
(lp2863
(I1120
I1541
tp2864
a(I1117
I1578
tp2865
as(I1609
I327
tp2866
(lp2867
(I1629
I331
tp2868
a(I1595
I310
tp2869
as(I674
I422
tp2870
(lp2871
(I653
I417
tp2872
ag159
as(I377
I1469
tp2873
(lp2874
(I377
I1490
tp2875
a(I380
I1448
tp2876
as(I156
I287
tp2877
(lp2878
(I134
I287
tp2879
ag217
as(I567
I602
tp2880
(lp2881
(I556
I585
tp2882
a(I589
I603
tp2883
as(I1026
I1234
tp2884
(lp2885
(I1025
I1215
tp2886
ag2319
asg631
(lp2887
(I259
I1033
tp2888
ag2751
as(I1006
I1927
tp2889
(lp2890
(I1012
I1912
tp2891
a(I998
I1926
tp2892
a(I1010
I1933
tp2893
asg575
(lp2894
(I404
I259
tp2895
ag2512
as(I810
I658
tp2896
(lp2897
(I815
I637
tp2898
a(I808
I679
tp2899
as(I815
I637
tp2900
(lp2901
(I825
I618
tp2902
ag2896
as(I1111
I1391
tp2903
(lp2904
(I1112
I1410
tp2905
a(I1110
I1372
tp2906
asg2473
(lp2907
(I314
I1601
tp2908
ag127
as(I1561
I149
tp2909
(lp2910
(I1544
I162
tp2911
a(I1580
I142
tp2912
as(I1389
I1492
tp2913
(lp2914
(I1406
I1490
tp2915
ag269
as(I474
I1817
tp2916
(lp2917
(I493
I1809
tp2918
ag1481
as(I318
I800
tp2919
(lp2920
(I313
I779
tp2921
a(I320
I822
tp2922
as(I998
I1926
tp2923
(lp2924
(I992
I1921
tp2925
a(I1006
I1927
tp2926
as(I48
I329
tp2927
(lp2928
(I46
I255
tp2929
a(I69
I333
tp2930
asg2883
(lp2931
(I567
I602
tp2932
a(I610
I602
tp2933
as(I1414
I1581
tp2934
(lp2935
(I1399
I1565
tp2936
a(I1424
I1600
tp2937
as(I423
I625
tp2938
(lp2939
(I422
I603
tp2940
a(I423
I646
tp2941
as(I1449
I904
tp2942
(lp2943
(I1463
I887
tp2944
ag438
as(I1209
I412
tp2945
(lp2946
(I1212
I390
tp2947
ag1153
asg1857
(lp2948
(I714
I1950
tp2949
ag1687
ag2285
asg1820
(lp2950
g1818
a(I1235
I625
tp2951
as(I741
I1387
tp2952
(lp2953
(I747
I1408
tp2954
ag1101
as(I1236
I1762
tp2955
(lp2956
(I1237
I1739
tp2957
a(I1233
I1783
tp2958
asg2750
(lp2959
(I395
I369
tp2960
a(I366
I363
tp2961
a(I375
I382
tp2962
as(I1096
I42
tp2963
(lp2964
(I1108
I61
tp2965
as(I936
I753
tp2966
(lp2967
(I944
I769
tp2968
ag933
asg2318
(lp2969
g2315
a(I204
I1976
tp2970
asg1015
(lp2971
(I394
I1093
tp2972
a(I361
I1064
tp2973
asg2507
(lp2974
(I729
I573
tp2975
a(I766
I552
tp2976
as(I833
I740
tp2977
(lp2978
(I817
I755
tp2979
a(I844
I722
tp2980
a(I834
I761
tp2981
as(I1307
I1581
tp2982
(lp2983
(I1301
I1560
tp2984
a(I1313
I1601
tp2985
as(I1937
I1668
tp2986
(lp2987
(I1919
I1680
tp2988
a(I1959
I1665
tp2989
asg857
(lp2990
(I196
I342
tp2991
a(I226
I325
tp2992
a(I238
I344
tp2993
as(I548
I565
tp2994
(lp2995
(I529
I566
tp2996
a(I556
I585
tp2997
as(I754
I1429
tp2998
(lp2999
(I761
I1450
tp3000
a(I747
I1408
tp3001
as(I401
I187
tp3002
(lp3003
(I385
I188
tp3004
ag391
as(I347
I220
tp3005
(lp3006
(I347
I198
tp3007
a(I347
I242
tp3008
as(I376
I1512
tp3009
(lp3010
(I376
I1534
tp3011
a(I377
I1490
tp3012
as(I190
I855
tp3013
(lp3014
(I198
I875
tp3015
a(I186
I834
tp3016
as(I215
I278
tp3017
(lp3018
(I235
I272
tp3019
a(I199
I289
tp3020
asg2803
(lp3021
g2801
a(I1452
I411
tp3022
asg1352
(lp3023
(I192
I1837
tp3024
a(I191
I1797
tp3025
asg2036
(lp3026
(I216
I532
tp3027
a(I217
I491
tp3028
a(I196
I521
tp3029
as(I1924
I446
tp3030
(lp3031
(I1920
I426
tp3032
a(I1926
I467
tp3033
asg1287
(lp3034
(I1728
I543
tp3035
a(I1764
I525
tp3036
as(I1009
I197
tp3037
(lp3038
(I995
I180
tp3039
ag2848
as(I1030
I1394
tp3040
(lp3041
(I1038
I1414
tp3042
asg1196
(lp3043
(I1130
I770
tp3044
ag830
as(I1170
I1784
tp3045
(lp3046
(I1159
I1803
tp3047
ag1760
as(I302
I350
tp3048
(lp3049
(I281
I347
tp3050
a(I324
I355
tp3051
as(I1354
I1749
tp3052
(lp3053
(I1360
I1769
tp3054
ag1797
as(I553
I1319
tp3055
(lp3056
(I569
I1335
tp3057
a(I538
I1304
tp3058
asg2537
(lp3059
(I1320
I434
tp3060
a(I1279
I449
tp3061
as(I358
I612
tp3062
(lp3063
(I379
I606
tp3064
ag182
asg917
(lp3065
(I1452
I1659
tp3066
ag2044
asg2087
(lp3067
(I1707
I446
tp3068
a(I1749
I440
tp3069
as(I1710
I254
tp3070
(lp3071
(I1731
I252
tp3072
a(I1689
I259
tp3073
as(I518
I156
tp3074
(lp3075
(I503
I169
tp3076
a(I531
I141
tp3077
as(I563
I504
tp3078
(lp3079
(I542
I502
tp3080
ag2377
asg2559
(lp3081
(I1378
I981
tp3082
a(I1362
I1021
tp3083
as(I66
I749
tp3084
(lp3085
(I58
I729
tp3086
a(I73
I769
tp3087
as(I69
I1813
tp3088
(lp3089
g361
a(I46
I1816
tp3090
as(I1430
I331
tp3091
(lp3092
(I1413
I331
tp3093
a(I1448
I330
tp3094
asg800
(lp3095
(I1393
I690
tp3096
a(I1359
I715
tp3097
as(I189
I1882
tp3098
(lp3099
(I186
I1863
tp3100
a(I177
I1895
tp3101
asg2189
(lp3102
g2187
as(I374
I1977
tp3103
(lp3104
(I394
I1976
tp3105
a(I354
I1977
tp3106
asg480
(lp3107
(I198
I985
tp3108
a(I234
I970
tp3109
asg1875
(lp3110
(I728
I1005
tp3111
a(I694
I1021
tp3112
as(I1445
I1867
tp3113
(lp3114
(I1424
I1867
tp3115
ag2088
as(I219
I1907
tp3116
(lp3117
(I201
I1895
tp3118
a(I235
I1921
tp3119
asg469
(lp3120
(I1732
I613
tp3121
a(I1698
I614
tp3122
as(I1750
I883
tp3123
(lp3124
(I1769
I893
tp3125
ag354
as(I1719
I109
tp3126
(lp3127
(I1724
I130
tp3128
a(I1709
I90
tp3129
asg527
(lp3130
g525
ag2830
as(I896
I1865
tp3131
(lp3132
(I917
I1865
tp3133
ag1182
asg2933
(lp3134
(I589
I603
tp3135
a(I631
I598
tp3136
asg1780
(lp3137
(I1140
I352
tp3138
a(I1182
I341
tp3139
as(I1397
I409
tp3140
(lp3141
(I1415
I409
tp3142
a(I1378
I409
tp3143
asg2809
(lp3144
(I1016
I1435
tp3145
a(I972
I1437
tp3146
as(I604
I278
tp3147
(lp3148
(I584
I287
tp3149
a(I624
I271
tp3150
as(I50
I1722
tp3151
(lp3152
(I70
I1722
tp3153
asg602
(lp3154
(I1028
I137
tp3155
a(I1053
I172
tp3156
as(I354
I1955
tp3157
(lp3158
(I354
I1977
tp3159
ag2841
as(I460
I1598
tp3160
(lp3161
(I460
I1618
tp3162
a(I461
I1577
tp3163
as(I386
I441
tp3164
(lp3165
(I392
I421
tp3166
ag1907
as(I282
I592
tp3167
(lp3168
(I281
I571
tp3169
ag178
asg386
(lp3170
(I154
I979
tp3171
a(I159
I1017
tp3172
a(I180
I992
tp3173
a(I143
I1006
tp3174
as(I1614
I186
tp3175
(lp3176
(I1613
I207
tp3177
a(I1611
I166
tp3178
as(I328
I920
tp3179
(lp3180
(I339
I904
tp3181
a(I329
I939
tp3182
as(I134
I287
tp3183
(lp3184
(I115
I278
tp3185
ag2877
as(I300
I486
tp3186
(lp3187
(I318
I498
tp3188
a(I280
I477
tp3189
as(I414
I106
tp3190
(lp3191
(I415
I127
tp3192
a(I414
I86
tp3193
as(I1263
I1160
tp3194
(lp3195
(I1264
I1172
tp3196
as(I1692
I878
tp3197
(lp3198
(I1709
I867
tp3199
a(I1673
I883
tp3200
a(I1713
I883
tp3201
asg1804
(lp3202
(I272
I1891
tp3203
a(I312
I1890
tp3204
as(I222
I626
tp3205
(lp3206
(I244
I624
tp3207
ag1533
as(I633
I41
tp3208
(lp3209
(I617
I54
tp3210
asg1626
(lp3211
(I1129
I1993
tp3212
as(I413
I583
tp3213
(lp3214
(I422
I603
tp3215
a(I431
I572
tp3216
ag1383
a(I398
I599
tp3217
as(I106
I1700
tp3218
(lp3219
(I111
I1709
tp3220
asg417
(lp3221
g415
a(I1681
I771
tp3222
asg45
(lp3223
(I807
I537
tp3224
a(I845
I538
tp3225
asg283
(lp3226
g281
ag1124
a(I1493
I223
tp3227
asg2937
(lp3228
(I1414
I1581
tp3229
a(I1434
I1620
tp3230
as(I529
I1680
tp3231
(lp3232
(I513
I1692
tp3233
ag1603
as(I2008
I676
tp3234
(lp3235
(I1994
I659
tp3236
as(I273
I1905
tp3237
(lp3238
(I273
I1919
tp3239
ag1801
as(I422
I1673
tp3240
(lp3241
(I437
I1682
tp3242
ag2384
a(I404
I1684
tp3243
asg534
(lp3244
(I213
I700
tp3245
a(I229
I739
tp3246
as(I299
I1246
tp3247
(lp3248
(I286
I1228
tp3249
a(I311
I1262
tp3250
as(I1904
I194
tp3251
(lp3252
(I1885
I183
tp3253
ag2356
as(I306
I174
tp3254
(lp3255
(I284
I174
tp3256
as(I863
I1265
tp3257
(lp3258
(I865
I1286
tp3259
asg2851
(lp3260
(I1021
I215
tp3261
a(I1044
I253
tp3262
asg1633
(lp3263
(I1278
I234
tp3264
a(I1281
I242
tp3265
ag2604
ag2409
as(I155
I1649
tp3266
(lp3267
(I135
I1644
tp3268
a(I176
I1649
tp3269
as(I774
I1975
tp3270
(lp3271
(I795
I1983
tp3272
ag1783
asg1512
(lp3273
(I209
I88
tp3274
ag2520
asg2677
(lp3275
(I367
I878
tp3276
a(I339
I904
tp3277
as(I892
I1816
tp3278
(lp3279
(I905
I1825
tp3280
a(I871
I1820
tp3281
as(I199
I899
tp3282
(lp3283
(I205
I896
tp3284
a(I192
I901
tp3285
as(I76
I943
tp3286
(lp3287
(I57
I950
tp3288
ag38
asg2265
(lp3289
(I1661
I553
tp3290
a(I1688
I578
tp3291
as(I1985
I758
tp3292
(lp3293
(I1965
I761
tp3294
a(I2006
I757
tp3295
asg2665
(lp3296
(I1874
I517
tp3297
a(I1877
I476
tp3298
as(I96
I1593
tp3299
(lp3300
(I112
I1605
tp3301
ag2148
as(I1121
I1572
tp3302
(lp3303
(I1124
I1567
tp3304
a(I1117
I1578
tp3305
asg197
(lp3306
(I607
I1504
tp3307
ag1954
as(I1376
I203
tp3308
(lp3309
(I1372
I223
tp3310
a(I1378
I182
tp3311
asg1860
(lp3312
(I1162
I99
tp3313
ag2759
as(I1256
I625
tp3314
(lp3315
(I1235
I625
tp3316
a(I1276
I625
tp3317
as(I1092
I1730
tp3318
(lp3319
(I1089
I1745
tp3320
a(I1095
I1716
tp3321
asg2300
(lp3322
(I1376
I281
tp3323
a(I1366
I242
tp3324
asg3178
(lp3325
(I1614
I186
tp3326
a(I1600
I149
tp3327
asg3327
(lp3328
(I1611
I166
tp3329
a(I1580
I142
tp3330
asg1283
(lp3331
(I729
I1774
tp3332
ag1056
as(I51
I556
tp3333
(lp3334
(I54
I535
tp3335
a(I49
I576
tp3336
as(I451
I1798
tp3337
(lp3338
(I473
I1802
tp3339
a(I430
I1794
tp3340
as(I1621
I2001
tp3341
(lp3342
(I1630
I1980
tp3343
as(I713
I1479
tp3344
(lp3345
(I712
I1457
tp3346
ag485
as(I885
I51
tp3347
(lp3348
(I1433
I42
tp3349
a(I885
I73
tp3350
as(I867
I536
tp3351
(lp3352
(I888
I537
tp3353
a(I845
I538
tp3354
as(I41
I1677
tp3355
(lp3356
(I48
I1694
tp3357
as(I998
I1906
tp3358
(lp3359
(I992
I1921
tp3360
a(I1012
I1912
tp3361
asg84
(lp3362
(I1651
I420
tp3363
ag346
asg2016
(lp3364
(I654
I1734
tp3365
a(I628
I1767
tp3366
as(I1614
I403
tp3367
(lp3368
(I1595
I411
tp3369
a(I1634
I407
tp3370
as(I474
I387
tp3371
(lp3372
(I453
I381
tp3373
a(I495
I388
tp3374
asg2137
(lp3375
(I128
I1798
tp3376
ag619
as(I627
I219
tp3377
(lp3378
(I608
I227
tp3379
a(I646
I212
tp3380
as(I1157
I1427
tp3381
(lp3382
(I1135
I1428
tp3383
a(I1179
I1426
tp3384
asg2789
(lp3385
(I1601
I270
tp3386
a(I1610
I228
tp3387
as(I724
I230
tp3388
(lp3389
(I704
I238
tp3390
ag209
asg924
(lp3391
(I1563
I653
tp3392
a(I1541
I686
tp3393
as(I664
I254
tp3394
(lp3395
(I644
I262
tp3396
a(I684
I246
tp3397
as(I722
I1795
tp3398
(lp3399
(I713
I1816
tp3400
ag1280
as(I1115
I1461
tp3401
(lp3402
(I1114
I1445
tp3403
ag632
asg1910
(lp3404
(I384
I460
tp3405
a(I378
I500
tp3406
asg2406
(lp3407
(I707
I1545
tp3408
a(I701
I1588
tp3409
as(I963
I1274
tp3410
(lp3411
(I985
I1274
tp3412
a(I942
I1276
tp3413
as(I1097
I1555
tp3414
(lp3415
(I1102
I1536
tp3416
ag1357
as(I1209
I791
tp3417
(lp3418
(I1229
I796
tp3419
a(I1192
I777
tp3420
asg3087
(lp3421
(I66
I749
tp3422
ag2305
as(I644
I115
tp3423
(lp3424
(I665
I115
tp3425
ag535
asg1356
(lp3426
(I1228
I1395
tp3427
ag2724
as(I190
I1867
tp3428
(lp3429
(I186
I1863
tp3430
ag937
as(I1540
I58
tp3431
(lp3432
(I1540
I78
tp3433
a(I1545
I39
tp3434
asg1418
(lp3435
(I252
I1934
tp3436
ag2061
asg3295
(lp3437
(I1985
I758
tp3438
as(I984
I1811
tp3439
(lp3440
(I996
I1801
tp3441
a(I968
I1814
tp3442
as(I246
I1657
tp3443
(lp3444
(I247
I1670
tp3445
as(I431
I1890
tp3446
(lp3447
(I432
I1908
tp3448
a(I452
I1891
tp3449
a(I411
I1889
tp3450
asg2989
(lp3451
(I1937
I1668
tp3452
ag2352
asg1922
(lp3453
(I1113
I1429
tp3454
ag3381
asg3384
(lp3455
(I1157
I1427
tp3456
ag2550
as(I347
I153
tp3457
(lp3458
(I347
I131
tp3459
ag769
asg3016
(lp3460
(I190
I855
tp3461
ag2763
asg2632
(lp3462
(I262
I1054
tp3463
a(I268
I1091
tp3464
as(I281
I571
tp3465
(lp3466
(I281
I549
tp3467
ag3167
asg1400
(lp3468
(I842
I220
tp3469
a(I860
I183
tp3470
asg2047
(lp3471
(I1470
I1698
tp3472
ag505
asg1465
(lp3473
(I920
I1718
tp3474
a(I938
I1690
tp3475
as(I1016
I583
tp3476
(lp3477
(I1036
I581
tp3478
as(I502
I598
tp3479
(lp3480
(I481
I597
tp3481
ag1036
as(I726
I955
tp3482
(lp3483
(I730
I963
tp3484
a(I723
I961
tp3485
a(I738
I937
tp3486
asg2190
(lp3487
(I1225
I688
tp3488
a(I1263
I683
tp3489
as(I125
I1013
tp3490
(lp3491
(I143
I1006
tp3492
ag1899
as(I1284
I283
tp3493
(lp3494
(I1278
I263
tp3495
ag1485
as(I1463
I887
tp3496
(lp3497
(I1476
I869
tp3498
ag2942
asg985
(lp3499
(I1749
I691
tp3500
a(I1749
I735
tp3501
as(I795
I1553
tp3502
(lp3503
(I801
I1573
tp3504
ag426
as(I385
I1596
tp3505
(lp3506
(I405
I1605
tp3507
a(I376
I1577
tp3508
as(I321
I843
tp3509
(lp3510
(I320
I822
tp3511
a(I306
I857
tp3512
as(I1069
I1761
tp3513
(lp3514
(I1065
I1745
tp3515
ag559
as(I79
I227
tp3516
(lp3517
(I87
I246
tp3518
a(I65
I212
tp3519
as(I503
I169
tp3520
(lp3521
(I487
I181
tp3522
ag3074
as(I218
I299
tp3523
(lp3524
(I236
I308
tp3525
a(I199
I289
tp3526
asg1615
(lp3527
(I1179
I1112
tp3528
a(I1137
I1121
tp3529
as(I48
I1138
tp3530
(lp3531
(I67
I1133
tp3532
asg3277
(lp3533
(I355
I893
tp3534
ag3179
asg1242
(lp3535
(I1843
I124
tp3536
a(I1823
I161
tp3537
asg88
(lp3538
(I1392
I1975
tp3539
a(I1356
I1994
tp3540
as(I1769
I296
tp3541
(lp3542
(I1762
I276
tp3543
a(I1787
I305
tp3544
as(I665
I115
tp3545
(lp3546
(I686
I113
tp3547
ag3423
asg228
(lp3548
(I236
I760
tp3549
ag2538
asg1983
(lp3550
(I1265
I1184
tp3551
ag3194
as(I432
I1945
tp3552
(lp3553
(I432
I1963
tp3554
a(I432
I1926
tp3555
as(I241
I1520
tp3556
(lp3557
(I262
I1523
tp3558
a(I220
I1521
tp3559
as(I131
I1813
tp3560
(lp3561
(I112
I1806
tp3562
a(I147
I1826
tp3563
as(I297
I90
tp3564
(lp3565
(I275
I90
tp3566
ag1172
as(I1258
I446
tp3567
(lp3568
(I1236
I442
tp3569
a(I1279
I449
tp3570
asg1957
(lp3571
(I603
I1460
tp3572
a(I598
I1416
tp3573
as(I950
I1823
tp3574
(lp3575
(I968
I1814
tp3576
ag946
as(I110
I1722
tp3577
(lp3578
(I110
I1720
tp3579
ag909
as(I204
I1937
tp3580
(lp3581
(I216
I1950
tp3582
a(I185
I1918
tp3583
as(I1293
I104
tp3584
(lp3585
(I1298
I123
tp3586
a(I1287
I83
tp3587
as(I533
I398
tp3588
(lp3589
(I516
I387
tp3590
a(I548
I414
tp3591
as(I1879
I945
tp3592
(lp3593
(I1894
I960
tp3594
a(I1860
I935
tp3595
as(I1185
I1307
tp3596
(lp3597
(I1188
I1326
tp3598
a(I1184
I1288
tp3599
asg504
(lp3600
(I1669
I1834
tp3601
a(I1671
I1879
tp3602
asg3366
(lp3603
(I641
I1751
tp3604
a(I615
I1784
tp3605
asg3311
(lp3606
(I1376
I203
tp3607
ag1861
asg3004
(lp3608
g3002
asg3246
(lp3609
(I221
I719
tp3610
ag225
as(I54
I535
tp3611
(lp3612
(I58
I515
tp3613
ag3333
as(I1524
I1942
tp3614
(lp3615
(I1540
I1927
tp3616
a(I1509
I1959
tp3617
asg1786
(lp3618
(I754
I1968
tp3619
ag1854
asg622
(lp3620
(I165
I1793
tp3621
a(I185
I1778
tp3622
asg1329
(lp3623
(I520
I499
tp3624
ag3078
asg1705
(lp3625
(I1530
I1984
tp3626
a(I1495
I2010
tp3627
as(I834
I118
tp3628
(lp3629
(I820
I132
tp3630
ag2649
as(I1541
I378
tp3631
(lp3632
(I1543
I397
tp3633
a(I1547
I360
tp3634
a(I1532
I361
tp3635
as(I1486
I244
tp3636
(lp3637
(I1493
I223
tp3638
a(I1479
I265
tp3639
asg3639
(lp3640
(I1486
I244
tp3641
ag2860
asg2941
(lp3642
(I423
I625
tp3643
a(I423
I669
tp3644
as(I286
I864
tp3645
(lp3646
(I306
I857
tp3647
asg2731
(lp3648
(I134
I650
tp3649
a(I166
I648
tp3650
asg2455
(lp3651
(I331
I1300
tp3652
a(I362
I1328
tp3653
as(I665
I204
tp3654
(lp3655
(I646
I212
tp3656
a(I684
I196
tp3657
as(I1343
I1243
tp3658
(lp3659
(I1343
I1262
tp3660
ag77
as(I156
I1985
tp3661
(lp3662
(I176
I1985
tp3663
a(I136
I1986
tp3664
asg146
(lp3665
(I331
I1734
tp3666
a(I293
I1717
tp3667
asg3118
(lp3668
g3116
a(I196
I1895
tp3669
a(I210
I1894
tp3670
asg1116
(lp3671
(I698
I1393
tp3672
ag1068
asg2336
(lp3673
(I1228
I1804
tp3674
ag2096
as(I409
I1394
tp3675
(lp3676
(I406
I1373
tp3677
ag229
asg1551
(lp3678
(I1825
I412
tp3679
ag2072
asg496
(lp3680
(I577
I1835
tp3681
ag1235
asg1995
(lp3682
(I501
I1464
tp3683
as(I1926
I510
tp3684
(lp3685
(I1926
I489
tp3686
as(I203
I1335
tp3687
(lp3688
(I181
I1339
tp3689
a(I225
I1337
tp3690
as(I1612
I1751
tp3691
(lp3692
(I1593
I1744
tp3693
a(I1631
I1762
tp3694
as(I767
I1866
tp3695
(lp3696
(I774
I1886
tp3697
a(I773
I1845
tp3698
as(I1354
I450
tp3699
(lp3700
(I1359
I471
tp3701
ag2363
as(I1288
I525
tp3702
(lp3703
(I1267
I528
tp3704
a(I1307
I517
tp3705
as(I1865
I617
tp3706
(lp3707
(I1853
I599
tp3708
ag1346
as(I144
I1633
tp3709
(lp3710
(I163
I1639
tp3711
a(I128
I1619
tp3712
as(I1226
I536
tp3713
(lp3714
(I1206
I540
tp3715
a(I1247
I532
tp3716
as(I1229
I796
tp3717
(lp3718
(I1249
I789
tp3719
ag3417
asg871
(lp3720
(I327
I2013
tp3721
a(I354
I1977
tp3722
asg1249
(lp3723
(I362
I396
tp3724
a(I388
I367
tp3725
as(I1615
I125
tp3726
(lp3727
(I1629
I139
tp3728
ag2428
as(I711
I586
tp3729
(lp3730
(I693
I597
tp3731
ag2504
asg1917
(lp3732
(I317
I654
tp3733
a(I330
I693
tp3734
as(I270
I308
tp3735
(lp3736
(I254
I310
tp3737
a(I286
I299
tp3738
as(I1526
I830
tp3739
(lp3740
(I1546
I821
tp3741
a(I1507
I839
tp3742
as(I558
I764
tp3743
(lp3744
(I577
I768
tp3745
ag2593
as(I1843
I841
tp3746
(lp3747
(I1863
I834
tp3748
ag1974
as(I1720
I989
tp3749
(lp3750
(I1741
I988
tp3751
a(I1704
I975
tp3752
asg1871
(lp3753
(I522
I751
tp3754
a(I494
I726
tp3755
asg945
(lp3756
(I184
I1483
tp3757
ag2233
as(I494
I1760
tp3758
(lp3759
(I474
I1756
tp3760
asg865
(lp3761
(I1325
I482
tp3762
a(I1300
I454
tp3763
asg3434
(lp3764
(I1540
I58
tp3765
as(I1249
I789
tp3766
(lp3767
(I1259
I770
tp3768
ag3717
asg1325
(lp3769
(I697
I1645
tp3770
ag2048
asg10
(lp3771
(I1100
I1675
tp3772
a(I1095
I1716
tp3773
asg550
(lp3774
(I1228
I1539
tp3775
a(I1228
I1581
tp3776
asg664
(lp3777
(I795
I1594
tp3778
ag3502
asg1445
(lp3779
(I492
I1693
tp3780
ag2611
as(I1202
I350
tp3781
(lp3782
(I1182
I341
tp3783
a(I1213
I368
tp3784
asg2629
(lp3785
(I67
I862
tp3786
a(I103
I849
tp3787
as(I160
I1952
tp3788
(lp3789
(I139
I1959
tp3790
a(I181
I1947
tp3791
as(I1729
I761
tp3792
(lp3793
(I1716
I772
tp3794
ag1526
asg3298
(lp3795
(I1879
I497
tp3796
a(I1870
I456
tp3797
as(I1347
I1185
tp3798
(lp3799
(I1343
I1204
tp3800
a(I1366
I1183
tp3801
asg2804
(lp3802
(I1475
I438
tp3803
ag1559
as(I943
I75
tp3804
(lp3805
(I964
I80
tp3806
a(I932
I75
tp3807
a(I927
I67
tp3808
as(I944
I1435
tp3809
(lp3810
(I950
I1436
tp3811
a(I938
I1435
tp3812
as(I324
I1689
tp3813
(lp3814
(I345
I1694
tp3815
a(I305
I1681
tp3816
asg2281
(lp3817
(I1052
I1752
tp3818
ag3513
asg1664
(lp3819
(I1370
I1534
tp3820
a(I1399
I1565
tp3821
as(I495
I1649
tp3822
(lp3823
(I477
I1656
tp3824
a(I501
I1631
tp3825
asg776
(lp3826
(I682
I184
tp3827
a(I684
I196
tp3828
a(I723
I181
tp3829
asg158
(lp3830
(I1501
I1778
tp3831
a(I1489
I1738
tp3832
as(I905
I1825
tp3833
(lp3834
(I889
I1834
tp3835
ag3278
asg2264
(lp3836
g2262
asg76
(lp3837
(I595
I1394
tp3838
ag1227
as(I1471
I748
tp3839
(lp3840
(I1471
I769
tp3841
a(I1471
I726
tp3842
as(I117
I516
tp3843
(lp3844
(I104
I519
tp3845
a(I101
I502
tp3846
as(I762
I132
tp3847
(lp3848
(I752
I151
tp3849
a(I774
I114
tp3850
as(I104
I519
tp3851
(lp3852
(I87
I505
tp3853
ag3843
asg3540
(lp3854
(I1374
I1985
tp3855
ag962
as(I970
I514
tp3856
(lp3857
(I989
I505
tp3858
a(I950
I523
tp3859
as(I112
I337
tp3860
(lp3861
(I116
I334
tp3862
a(I110
I342
tp3863
as(I1880
I264
tp3864
(lp3865
(I1862
I252
tp3866
ag1419
asg2645
(lp3867
(I1870
I847
tp3868
ag568
asg394
(lp3869
(I416
I187
tp3870
a(I415
I146
tp3871
asg1885
(lp3872
(I86
I1771
tp3873
a(I112
I1806
tp3874
asg3083
(lp3875
(I1370
I1000
tp3876
a(I1354
I1041
tp3877
asg1230
(lp3878
(I583
I1352
tp3879
ag3055
as(I178
I1856
tp3880
(lp3881
(I186
I1863
tp3882
ag1864
asg953
(lp3883
(I1097
I362
tp3884
ag1777
as(I1681
I1898
tp3885
(lp3886
(I1671
I1879
tp3887
ag2371
as(I901
I113
tp3888
(lp3889
(I887
I129
tp3890
a(I892
I94
tp3891
ag1060
as(I1485
I808
tp3892
(lp3893
(I1504
I816
tp3894
a(I1474
I790
tp3895
asg2997
(lp3896
(I548
I565
tp3897
ag2880
as(I1594
I750
tp3898
(lp3899
(I1576
I744
tp3900
a(I1596
I771
tp3901
asg2091
(lp3902
(I1461
I1878
tp3903
a(I1464
I1917
tp3904
asg2204
(lp3905
(I1047
I1272
tp3906
ag1658
as(I1100
I1706
tp3907
(lp3908
(I1095
I1716
tp3909
a(I1102
I1694
tp3910
asg2819
(lp3911
(I268
I1784
tp3912
a(I234
I1760
tp3913
asg1094
(lp3914
(I1183
I1268
tp3915
a(I1145
I1269
tp3916
asg928
(lp3917
(I1461
I1982
tp3918
a(I1445
I2009
tp3919
asg3189
(lp3920
(I300
I486
tp3921
ag1727
as(I282
I1978
tp3922
(lp3923
(I266
I1963
tp3924
a(I295
I1996
tp3925
asg3653
(lp3926
(I346
I1315
tp3927
ag1717
asg1540
(lp3928
(I1088
I1356
tp3929
a(I1044
I1358
tp3930
as(I88
I1989
tp3931
(lp3932
(I104
I1988
tp3933
ag2341
as(I435
I2000
tp3934
(lp3935
(I432
I1981
tp3936
as(I507
I1272
tp3937
(lp3938
(I522
I1288
tp3939
ag241
as(I1347
I1340
tp3940
(lp3941
(I1348
I1359
tp3942
a(I1327
I1340
tp3943
a(I1346
I1321
tp3944
ag1588
asg1408
(lp3945
(I873
I144
tp3946
ag3888
as(I1556
I880
tp3947
(lp3948
(I1556
I859
tp3949
a(I1559
I899
tp3950
as(I694
I1856
tp3951
(lp3952
(I686
I1877
tp3953
a(I704
I1836
tp3954
asg980
(lp3955
(I1802
I233
tp3956
a(I1767
I243
tp3957
as(I1919
I1680
tp3958
(lp3959
(I1905
I1696
tp3960
ag2986
asg3669
(lp3961
(I201
I1895
tp3962
a(I177
I1895
tp3963
as(I106
I1077
tp3964
(lp3965
(I112
I1094
tp3966
a(I100
I1061
tp3967
as(I436
I454
tp3968
(lp3969
(I419
I454
tp3970
ag1
as(I1594
I815
tp3971
(lp3972
(I1596
I793
tp3973
a(I1589
I835
tp3974
asg2829
(lp3975
(I593
I1549
tp3976
as(I349
I1760
tp3977
(lp3978
(I369
I1769
tp3979
ag721
asg1960
(lp3980
g1958
asg103
(lp3981
(I758
I235
tp3982
a(I734
I270
tp3983
asg304
(lp3984
(I1337
I625
tp3985
a(I1300
I625
tp3986
asg3602
(lp3987
(I1670
I1856
tp3988
ag3885
as(I1823
I161
tp3989
(lp3990
(I1818
I171
tp3991
a(I1832
I142
tp3992
a(I1844
I166
tp3993
as(I1843
I424
tp3994
(lp3995
(I1859
I437
tp3996
ag1548
as(I1397
I942
tp3997
(lp3998
(I1413
I928
tp3999
a(I1386
I960
tp4000
asg276
(lp4001
(I424
I1126
tp4002
ag1012
as(I672
I1696
tp4003
(lp4004
(I678
I1675
tp4005
ag1265
asg2040
(lp4006
(I123
I1431
tp4007
a(I123
I1473
tp4008
asg772
(lp4009
(I347
I176
tp4010
ag3005
asg1606
(lp4011
(I544
I1665
tp4012
asg1499
(lp4013
(I1377
I141
tp4014
ag2191
as(I1522
I695
tp4015
(lp4016
(I1541
I686
tp4017
a(I1516
I716
tp4018
as(I848
I773
tp4019
(lp4020
(I834
I761
tp4021
a(I863
I787
tp4022
as(I1476
I869
tp4023
(lp4024
(I1490
I853
tp4025
ag3496
as(I819
I814
tp4026
(lp4027
(I811
I834
tp4028
a(I813
I793
tp4029
as(I951
I1199
tp4030
(lp4031
(I969
I1197
tp4032
ag765
asg3705
(lp4033
(I1288
I525
tp4034
a(I1321
I503
tp4035
as(I1211
I1344
tp4036
(lp4037
(I1192
I1346
tp4038
a(I1230
I1344
tp4039
as(I969
I1197
tp4040
(lp4041
(I987
I1197
tp4042
ag4030
as(I1262
I1265
tp4043
(lp4044
(I1242
I1265
tp4045
a(I1264
I1276
tp4046
ag1145
a(I1281
I1265
tp4047
asg3559
(lp4048
(I241
I1520
tp4049
ag846
asg3791
(lp4050
(I160
I1952
tp4051
a(I203
I1945
tp4052
as(I1047
I1788
tp4053
(lp4054
(I1049
I1789
tp4055
a(I1045
I1787
tp4056
as(I1594
I520
tp4057
(lp4058
(I1605
I506
tp4059
a(I1587
I537
tp4060
asg908
(lp4061
(I1022
I1362
tp4062
a(I981
I1380
tp4063
asg142
(lp4064
(I1659
I258
tp4065
a(I1663
I216
tp4066
asg571
(lp4067
(I1840
I880
tp4068
a(I1810
I911
tp4069
as(I210
I663
tp4070
(lp4071
(I203
I659
tp4072
ag2637
asg2628
(lp4073
g2626
as(I39
I1601
tp4074
(lp4075
(I57
I1612
tp4076
as(I336
I1975
tp4077
(lp4078
(I319
I1969
tp4079
a(I354
I1977
tp4080
asg1035
(lp4081
(I1838
I562
tp4082
ag1671
asg232
(lp4083
(I406
I1415
tp4084
a(I380
I1448
tp4085
asg2824
(lp4086
g2822
as(I295
I739
tp4087
(lp4088
(I283
I722
tp4089
a(I306
I759
tp4090
as(I260
I1927
tp4091
(lp4092
(I246
I1916
tp4093
a(I273
I1938
tp4094
as(I1038
I293
tp4095
(lp4096
(I1048
I274
tp4097
ag733
asg166
(lp4098
(I1716
I936
tp4099
a(I1728
I897
tp4100
as(I1316
I1659
tp4101
(lp4102
(I1310
I1637
tp4103
ag1117
asg3036
(lp4104
(I1746
I535
tp4105
a(I1783
I521
tp4106
as(I1769
I893
tp4107
(lp4108
(I1772
I912
tp4109
ag3123
as(I1104
I1232
tp4110
(lp4111
(I1105
I1251
tp4112
ag1083
as(I738
I1666
tp4113
(lp4114
(I743
I1687
tp4115
a(I728
I1647
tp4116
as(I48
I1774
tp4117
(lp4118
(I63
I1790
tp4119
a(I36
I1728
tp4120
as(I247
I1670
tp4121
(lp4122
(I250
I1682
tp4123
ag3443
as(I985
I1879
tp4124
(lp4125
(I971
I1891
tp4126
a(I998
I1866
tp4127
as(I1733
I784
tp4128
(lp4129
(I1716
I772
tp4130
a(I1751
I795
tp4131
asg1935
(lp4132
(I1916
I733
tp4133
a(I1892
I704
tp4134
asg1800
(lp4135
(I1348
I1729
tp4136
ag264
asg3216
(lp4137
(I413
I583
tp4138
a(I451
I567
tp4139
as(I1945
I768
tp4140
(lp4141
(I1927
I781
tp4142
a(I1932
I760
tp4143
a(I1965
I761
tp4144
as(I1413
I1845
tp4145
(lp4146
(I1393
I1839
tp4147
ag717
as(I1751
I795
tp4148
(lp4149
(I1768
I808
tp4150
a(I1733
I784
tp4151
a(I1750
I775
tp4152
asg369
(lp4153
(I921
I1279
tp4154
asg1022
(lp4155
(I1219
I740
tp4156
a(I1258
I749
tp4157
asg1827
(lp4158
g1825
ag2884
as(I1907
I978
tp4159
(lp4160
(I1918
I997
tp4161
a(I1894
I960
tp4162
asg3512
(lp4163
(I321
I843
tp4164
ag3645
as(I1267
I528
tp4165
(lp4166
(I1247
I532
tp4167
ag3702
asg4022
(lp4168
(I848
I773
tp4169
a(I858
I805
tp4170
a(I870
I774
tp4171
asg1303
(lp4172
(I368
I1656
tp4173
ag123
asg1003
(lp4174
(I1211
I1494
tp4175
ag1607
asg1507
(lp4176
(I425
I330
tp4177
ag2028
as(I273
I1774
tp4178
(lp4179
(I293
I1781
tp4180
ag624
asg797
(lp4181
(I824
I1749
tp4182
a(I828
I1708
tp4183
asg2254
(lp4184
(I136
I336
tp4185
ag1040
as(I567
I726
tp4186
(lp4187
(I586
I734
tp4188
ag1121
asg4076
(lp4189
g4074
ag379
asg3239
(lp4190
g3237
asg1321
(lp4191
(I588
I83
tp4192
a(I559
I112
tp4193
as(I1224
I113
tp4194
(lp4195
(I1241
I100
tp4196
a(I1202
I114
tp4197
asg3797
(lp4198
(I1877
I476
tp4199
a(I1859
I437
tp4200
as(I1177
I695
tp4201
(lp4202
(I1171
I674
tp4203
ag1706
as(I996
I1801
tp4204
(lp4205
(I1005
I1787
tp4206
ag3439
asg2060
(lp4207
(I158
I668
tp4208
a(I185
I651
tp4209
a(I150
I648
tp4210
a(I173
I629
tp4211
asg2727
(lp4212
(I1271
I1393
tp4213
ag543
asg3433
(lp4214
g3431
asg4085
(lp4215
(I395
I1433
tp4216
a(I377
I1469
tp4217
a(I402
I1451
tp4218
as(I863
I162
tp4219
(lp4220
(I860
I183
tp4221
ag1405
asg3374
(lp4222
(I474
I387
tp4223
a(I516
I387
tp4224
asg3916
(lp4225
(I1164
I1269
tp4226
a(I1125
I1271
tp4227
as(I913
I1362
tp4228
(lp4229
(I934
I1362
tp4230
a(I893
I1357
tp4231
as(I303
I1494
tp4232
(lp4233
(I303
I1516
tp4234
a(I291
I1477
tp4235
asg1587
(lp4236
(I162
I1335
tp4237
ag3687
asg2211
(lp4238
(I125
I1854
tp4239
a(I94
I1823
tp4240
asg1836
(lp4241
(I981
I163
tp4242
ag3037
as(I1920
I871
tp4243
(lp4244
(I1911
I857
tp4245
a(I1931
I884
tp4246
as(I392
I404
tp4247
(lp4248
(I395
I387
tp4249
a(I392
I421
tp4250
asg1140
(lp4251
(I90
I379
tp4252
a(I110
I342
tp4253
asg3763
(lp4254
(I1318
I464
tp4255
a(I1279
I449
tp4256
as(I273
I1211
tp4257
(lp4258
(I271
I1191
tp4259
a(I286
I1228
tp4260
as(I333
I1792
tp4261
(lp4262
(I353
I1797
tp4263
a(I313
I1786
tp4264
as(I376
I1534
tp4265
(lp4266
(I376
I1555
tp4267
ag3009
as(I265
I251
tp4268
(lp4269
(I251
I237
tp4270
a(I255
I266
tp4271
asg2426
(lp4272
g2424
as(I110
I1720
tp4273
(lp4274
(I90
I1721
tp4275
ag3577
a(I111
I1709
tp4276
as(I704
I102
tp4277
(lp4278
(I716
I85
tp4279
a(I686
I113
tp4280
as(I1897
I1739
tp4281
(lp4282
(I1899
I1761
tp4283
a(I1898
I1717
tp4284
asg1898
(lp4285
(I1519
I1891
tp4286
a(I1561
I1882
tp4287
as(I1243
I1101
tp4288
(lp4289
(I1262
I1092
tp4290
a(I1222
I1108
tp4291
as(I1212
I390
tp4292
(lp4293
(I1213
I368
tp4294
ag2945
as(I1899
I843
tp4295
(lp4296
(I1885
I832
tp4297
a(I1911
I857
tp4298
asg4094
(lp4299
(I260
I1927
tp4300
a(I263
I1935
tp4301
ag1810
as(I1049
I1789
tp4302
(lp4303
(I1054
I1781
tp4304
ag1393
ag4053
as(I313
I779
tp4305
(lp4306
(I306
I759
tp4307
ag2919
asg3230
(lp4308
(I1424
I1600
tp4309
a(I1443
I1640
tp4310
asg4171
(lp4311
(I863
I787
tp4312
a(I878
I761
tp4313
asg2219
(lp4314
(I1966
I358
tp4315
ag1616
as(I1156
I571
tp4316
(lp4317
(I1168
I554
tp4318
ag131
ag2666
asg1661
(lp4319
(I1086
I1271
tp4320
a(I1107
I1291
tp4321
a(I1125
I1271
tp4322
a(I1105
I1251
tp4323
as(I493
I1809
tp4324
(lp4325
(I511
I1797
tp4326
a(I473
I1802
tp4327
ag2916
as(I1639
I702
tp4328
(lp4329
(I1648
I721
tp4330
ag1566
asg4323
(lp4331
(I1106
I1271
tp4332
ag4110
as(I1605
I506
tp4333
(lp4334
(I1614
I490
tp4335
ag4057
as(I1772
I912
tp4336
(lp4337
(I1776
I932
tp4338
ag4107
as(I213
I915
tp4339
(lp4340
(I205
I896
tp4341
ag2322
asg2328
(lp4342
(I1556
I1912
tp4343
ag3614
asg1051
(lp4344
(I1051
I1769
tp4345
a(I1062
I1776
tp4346
asg1532
(lp4347
(I157
I1276
tp4348
ag2680
as(I1188
I1326
tp4349
(lp4350
(I1192
I1346
tp4351
ag3596
as(I1369
I1415
tp4352
(lp4353
(I1350
I1416
tp4354
a(I1388
I1415
tp4355
asg1712
(lp4356
(I157
I385
tp4357
ag1380
as(I1173
I767
tp4358
(lp4359
(I1192
I777
tp4360
a(I1151
I769
tp4361
asg2240
(lp4362
(I184
I1635
tp4363
ag3709
as(I1698
I772
tp4364
(lp4365
(I1716
I772
tp4366
a(I1681
I771
tp4367
as(I902
I709
tp4368
(lp4369
(I907
I729
tp4370
a(I898
I688
tp4371
asg3508
(lp4372
(I385
I1596
tp4373
a(I376
I1555
tp4374
as(I1795
I643
tp4375
(lp4376
(I1795
I622
tp4377
as(I1585
I1949
tp4378
(lp4379
(I1607
I1948
tp4380
a(I1564
I1956
tp4381
asg648
(lp4382
(I943
I1912
tp4383
ag1552
asg2215
(lp4384
(I307
I890
tp4385
a(I272
I913
tp4386
asg4052
(lp4387
(I181
I1947
tp4388
ag170
as(I347
I131
tp4389
(lp4390
(I346
I109
tp4391
ag3457
as(I1471
I769
tp4392
(lp4393
(I1474
I790
tp4394
ag3839
as(I1915
I1825
tp4395
(lp4396
(I1922
I1845
tp4397
ag462
as(I1247
I79
tp4398
(lp4399
(I1242
I58
tp4400
a(I1241
I100
tp4401
asg2976
(lp4402
(I747
I561
tp4403
ag1876
asg484
(lp4404
(I323
I1129
tp4405
asg4246
(lp4406
(I1920
I871
tp4407
a(I1943
I894
tp4408
as(I295
I1663
tp4409
(lp4410
(I305
I1681
tp4411
a(I289
I1643
tp4412
asg2447
(lp4413
(I1163
I634
tp4414
a(I1171
I674
tp4415
as(I774
I1886
tp4416
(lp4417
(I793
I1895
tp4418
ag3695
asg3406
(lp4419
(I381
I481
tp4420
a(I372
I519
tp4421
as(I825
I618
tp4422
(lp4423
(I836
I600
tp4424
ag2900
asg4381
(lp4425
(I1585
I1949
tp4426
ag2456
asg2773
(lp4427
(I293
I1148
tp4428
ag481
asg1999
(lp4429
(I1392
I467
tp4430
a(I1414
I500
tp4431
as(I1180
I1520
tp4432
(lp4433
(I1196
I1520
tp4434
as(I1308
I1341
tp4435
(lp4436
(I1288
I1342
tp4437
a(I1327
I1340
tp4438
asg2250
(lp4439
(I1844
I242
tp4440
ag3864
asg2483
(lp4441
(I1258
I749
tp4442
ag3766
asg3605
(lp4443
(I628
I1767
tp4444
a(I602
I1801
tp4445
asg22
(lp4446
(I867
I1307
tp4447
ag3257
asg4224
(lp4448
(I495
I388
tp4449
ag3588
as(I1268
I1288
tp4450
(lp4451
(I1264
I1276
tp4452
asg2833
(lp4453
(I502
I1601
tp4454
a(I478
I1613
tp4455
a(I501
I1631
tp4456
as(I599
I1656
tp4457
(lp4458
(I602
I1635
tp4459
a(I595
I1677
tp4460
asg2170
(lp4461
(I125
I695
tp4462
ag2057
asg2006
(lp4463
(I470
I191
tp4464
ag3520
asg1759
(lp4465
(I1107
I1150
tp4466
a(I1102
I1192
tp4467
as(I112
I638
tp4468
(lp4469
(I119
I655
tp4470
ag2531
as(I66
I1911
tp4471
(lp4472
(I44
I1910
tp4473
a(I88
I1914
tp4474
asg1511
(lp4475
g1509
ag1544
as(I145
I1844
tp4476
(lp4477
(I160
I1859
tp4478
ag823
asg1177
(lp4479
(I785
I217
tp4480
ag1985
as(I1307
I365
tp4481
(lp4482
(I1307
I387
tp4483
a(I1292
I365
tp4484
a(I1326
I365
tp4485
asg4473
(lp4486
g4471
as(I478
I1613
tp4487
(lp4488
(I460
I1618
tp4489
a(I495
I1614
tp4490
as(I1510
I260
tp4491
(lp4492
(I1526
I268
tp4493
asg1261
(lp4494
(I67
I251
tp4495
ag2927
as(I1262
I1092
tp4496
(lp4497
(I1282
I1083
tp4498
ag4288
asg4467
(lp4499
(I1102
I1171
tp4500
a(I1103
I1212
tp4501
ag69
asg4438
(lp4502
(I1308
I1341
tp4503
a(I1347
I1340
tp4504
asg3380
(lp4505
(I627
I219
tp4506
ag3654
as(I773
I1492
tp4507
(lp4508
(I777
I1513
tp4509
ag350
asg3573
(lp4510
(I601
I1438
tp4511
ag73
as(I836
I600
tp4512
(lp4513
(I843
I580
tp4514
ag4422
asg3807
(lp4515
(I943
I75
tp4516
a(I921
I76
tp4517
asg3863
(lp4518
(I112
I337
tp4519
a(I89
I341
tp4520
a(I105
I363
tp4521
asg476
(lp4522
(I1795
I927
tp4523
ag4336
asg1171
(lp4524
(I1096
I575
tp4525
a(I1056
I580
tp4526
asg3336
(lp4527
(I51
I556
tp4528
a(I47
I596
tp4529
as(I1613
I207
tp4530
(lp4531
(I1610
I228
tp4532
ag3175
as(I1298
I123
tp4533
(lp4534
(I1301
I144
tp4535
ag3584
asg2631
(lp4536
(I262
I1054
tp4537
a(I237
I1077
tp4538
as(I286
I1622
tp4539
(lp4540
(I289
I1643
tp4541
a(I278
I1603
tp4542
as(I1554
I839
tp4543
(lp4544
(I1546
I821
tp4545
a(I1556
I859
tp4546
asg1923
(lp4547
(I1113
I1429
tp4548
a(I1071
I1431
tp4549
as(I242
I969
tp4550
(lp4551
(I234
I970
tp4552
a(I249
I969
tp4553
as(I1237
I1739
tp4554
(lp4555
(I1227
I1721
tp4556
ag2955
as(I596
I370
tp4557
(lp4558
(I578
I364
tp4559
a(I617
I370
tp4560
asg345
(lp4561
(I1274
I254
tp4562
ag3493
a(I1281
I242
tp4563
asg2785
(lp4564
(I413
I510
tp4565
a(I406
I473
tp4566
ag2144
as(I445
I1520
tp4567
(lp4568
(I449
I1539
tp4569
ag2774
asg1950
(lp4570
(I1392
I614
tp4571
a(I1356
I625
tp4572
as(I327
I885
tp4573
(lp4574
(I346
I878
tp4575
ag2212
asg1796
(lp4576
g1794
ag2476
as(I82
I484
tp4577
(lp4578
(I80
I463
tp4579
a(I87
I505
tp4580
asg4291
(lp4581
(I1243
I1101
tp4582
ag1787
asg2673
(lp4583
(I1951
I667
tp4584
asg2253
(lp4585
g2251
ag3860
a(I111
I317
tp4586
as(I1595
I289
tp4587
(lp4588
(I1595
I310
tp4589
ag2786
as(I130
I1928
tp4590
(lp4591
(I109
I1920
tp4592
a(I150
I1937
tp4593
as(I1361
I513
tp4594
(lp4595
(I1349
I531
tp4596
ag2777
as(I1363
I357
tp4597
(lp4598
(I1380
I348
tp4599
a(I1346
I363
tp4600
as(I1109
I1353
tp4601
(lp4602
(I1128
I1349
tp4603
a(I1110
I1372
tp4604
a(I1108
I1333
tp4605
ag1537
asg3324
(lp4606
(I1367
I263
tp4607
a(I1372
I223
tp4608
asg700
(lp4609
(I1942
I323
tp4610
ag2216
as(I141
I500
tp4611
(lp4612
(I142
I479
tp4613
ag1903
as(I980
I1856
tp4614
(lp4615
(I998
I1866
tp4616
a(I958
I1855
tp4617
asg1991
(lp4618
(I1037
I1830
tp4619
ag2683
asg521
(lp4620
(I79
I1873
tp4621
a(I119
I1889
tp4622
asg1337
(lp4623
(I1351
I1436
tp4624
a(I1339
I1417
tp4625
ag4352
ag2523
asg57
(lp4626
(I1518
I439
tp4627
a(I1560
I437
tp4628
asg3983
(lp4629
(I748
I254
tp4630
ag1178
asg4047
(lp4631
(I1262
I1265
tp4632
a(I1300
I1263
tp4633
asg4035
(lp4634
(I1307
I517
tp4635
ag862
as(I1898
I814
tp4636
(lp4637
(I1885
I832
tp4638
a(I1911
I796
tp4639
asg2408
(lp4640
(I67
I476
tp4641
ag4577
asg3475
(lp4642
(I938
I1707
tp4643
a(I928
I1672
tp4644
as(I1667
I497
tp4645
(lp4646
(I1650
I492
tp4647
ag1401
asg2579
(lp4648
(I1795
I602
tp4649
ag4375
as(I1262
I1931
tp4650
(lp4651
(I1279
I1919
tp4652
a(I1258
I1950
tp4653
asg3944
(lp4654
(I1347
I1340
tp4655
a(I1345
I1302
tp4656
as(I1951
I686
tp4657
(lp4658
(I1951
I705
tp4659
ag2670
as(I1555
I324
tp4660
(lp4661
(I1575
I318
tp4662
ag2127
a(I1551
I342
tp4663
asg3806
(lp4664
g3804
a(I983
I90
tp4665
as(I1724
I130
tp4666
(lp4667
(I1728
I151
tp4668
ag3126
as(I252
I948
tp4669
(lp4670
(I260
I929
tp4671
a(I249
I969
tp4672
asg4240
(lp4673
(I109
I1838
tp4674
a(I79
I1806
tp4675
asg3204
(lp4676
(I292
I1891
tp4677
a(I332
I1889
tp4678
asg72
(lp4679
(I1122
I1191
tp4680
ag1889
asg1059
(lp4681
(I741
I1731
tp4682
a(I743
I1687
tp4683
asg3904
(lp4684
(I1469
I1897
tp4685
a(I1455
I1932
tp4686
a(I1449
I1925
tp4687
asg2143
(lp4688
(I1527
I175
tp4689
ag2909
asg2534
(lp4690
(I106
I622
tp4691
ag616
as(I66
I1856
tp4692
(lp4693
(I55
I1837
tp4694
ag518
as(I1032
I1448
tp4695
(lp4696
(I1034
I1469
tp4697
ag2806
as(I55
I1837
tp4698
(lp4699
(I43
I1818
tp4700
ag4692
asg936
(lp4701
(I917
I746
tp4702
ag4368
as(I546
I796
tp4703
(lp4704
(I525
I791
tp4705
a(I560
I780
tp4706
asg1211
(lp4707
(I1614
I901
tp4708
a(I1653
I889
tp4709
asg1630
(lp4710
(I1851
I1916
tp4711
a(I1852
I1960
tp4712
asg1743
(lp4713
g1741
a(I490
I767
tp4714
as(I171
I1591
tp4715
(lp4716
(I156
I1602
tp4717
asg3156
(lp4718
(I1041
I154
tp4719
ag685
as(I374
I540
tp4720
(lp4721
(I372
I519
tp4722
a(I370
I560
tp4723
asg3591
(lp4724
(I533
I398
tp4725
ag819
as(I1274
I666
tp4726
(lp4727
(I1263
I683
tp4728
a(I1276
I646
tp4729
asg4355
(lp4730
(I1369
I1415
tp4731
ag745
asg4018
(lp4732
(I1522
I695
tp4733
ag1679
as(I1002
I492
tp4734
(lp4735
(I989
I505
tp4736
a(I1007
I510
tp4737
asg3001
(lp4738
(I754
I1429
tp4739
ag2952
as(I271
I1191
tp4740
(lp4741
(I271
I1169
tp4742
ag4257
as(I226
I325
tp4743
(lp4744
(I236
I308
tp4745
a(I216
I343
tp4746
as(I392
I421
tp4747
(lp4748
(I397
I438
tp4749
a(I392
I404
tp4750
ag3164
asg2308
(lp4751
(I81
I789
tp4752
ag2075
asg1846
(lp4753
(I478
I1497
tp4754
ag1992
asg4127
(lp4755
(I985
I1879
tp4756
ag4614
a(I1011
I1854
tp4757
as(I843
I580
tp4758
(lp4759
(I848
I559
tp4760
ag4512
as(I788
I1656
tp4761
(lp4762
(I800
I1675
tp4763
ag858
asg3225
(lp4764
(I827
I530
tp4765
a(I867
I536
tp4766
a(I848
I559
tp4767
as(I1926
I489
tp4768
(lp4769
(I1926
I467
tp4770
ag3684
as(I1186
I545
tp4771
(lp4772
(I1168
I554
tp4773
a(I1206
I540
tp4774
asg904
(lp4775
(I1650
I328
tp4776
ag2866
as(I1744
I576
tp4777
(lp4778
(I1737
I559
tp4779
ag1289
asg3694
(lp4780
(I1612
I1751
tp4781
a(I1646
I1776
tp4782
asg4434
(lp4783
g4432
ag1500
asg130
(lp4784
(I302
I1560
tp4785
a(I303
I1516
tp4786
asg1984
(lp4787
(I1265
I1184
tp4788
a(I1299
I1179
tp4789
asg2359
(lp4790
(I1923
I206
tp4791
ag835
asg558
(lp4792
(I1561
I611
tp4793
ag921
as(I994
I714
tp4794
(lp4795
(I974
I707
tp4796
a(I1014
I707
tp4797
as(I743
I400
tp4798
(lp4799
(I733
I419
tp4800
a(I741
I379
tp4801
as(I1477
I1973
tp4802
(lp4803
(I1489
I1959
tp4804
ag925
as(I1390
I547
tp4805
(lp4806
(I1409
I556
tp4807
asg513
(lp4808
(I1975
I917
tp4809
a(I1943
I894
tp4810
asg3340
(lp4811
(I451
I1798
tp4812
a(I409
I1786
tp4813
asg1766
(lp4814
(I208
I1446
tp4815
ag942
asg4120
(lp4816
(I48
I1774
tp4817
ag2467
asg1286
(lp4818
g1284
ag4777
as(I1851
I1853
tp4819
(lp4820
(I1869
I1863
tp4821
a(I1841
I1836
tp4822
as(I254
I310
tp4823
(lp4824
(I236
I308
tp4825
ag3735
as(I1269
I1342
tp4826
(lp4827
(I1249
I1343
tp4828
a(I1270
I1359
tp4829
a(I1288
I1342
tp4830
as(I200
I1768
tp4831
(lp4832
(I216
I1760
tp4833
a(I185
I1778
tp4834
asg3100
(lp4835
g3098
ag3428
ag3880
as(I1795
I581
tp4836
(lp4837
(I1794
I561
tp4838
ag2576
asg3555
(lp4839
(I432
I1945
tp4840
a(I432
I1908
tp4841
asg2893
(lp4842
(I1006
I1927
tp4843
a(I1014
I1939
tp4844
asg4183
(lp4845
(I832
I1729
tp4846
a(I816
I1689
tp4847
as(I128
I1882
tp4848
(lp4849
g598
a(I112
I1866
tp4850
asg1288
(lp4851
(I1728
I543
tp4852
a(I1699
I513
tp4853
asg451
(lp4854
(I1200
I1482
tp4855
a(I1166
I1507
tp4856
asg2720
(lp4857
(I434
I1748
tp4858
a(I393
I1741
tp4859
as(I1869
I1863
tp4860
(lp4861
(I1889
I1864
tp4862
ag4819
as(I1249
I1343
tp4863
(lp4864
(I1230
I1344
tp4865
ag4826
asg968
(lp4866
(I1936
I1879
tp4867
ag1455
a(I1950
I1912
tp4868
as(I1743
I1912
tp4869
(lp4870
(I1721
I1912
tp4871
a(I1765
I1911
tp4872
asg3877
(lp4873
(I1362
I1021
tp4874
a(I1341
I1058
tp4875
asg3008
(lp4876
(I347
I220
tp4877
a(I347
I264
tp4878
asg4517
(lp4879
(I932
I75
tp4880
a(I913
I78
tp4881
a(I919
I65
tp4882
asg3974
(lp4883
(I1594
I815
tp4884
a(I1584
I856
tp4885
as(I946
I1373
tp4886
(lp4887
(I947
I1394
tp4888
a(I934
I1362
tp4889
asg240
(lp4890
(I910
I791
tp4891
a(I944
I769
tp4892
asg374
(lp4893
(I64
I1368
tp4894
ag2181
as(I1632
I490
tp4895
(lp4896
(I1614
I490
tp4897
a(I1650
I492
tp4898
as(I452
I1891
tp4899
(lp4900
(I473
I1893
tp4901
a(I431
I1890
tp4902
asg913
(lp4903
(I110
I1724
tp4904
a(I143
I1739
tp4905
asg3069
(lp4906
(I1728
I442
tp4907
ag2276
asg353
(lp4908
(I767
I1470
tp4909
ag2998
as(I818
I864
tp4910
(lp4911
(I799
I852
tp4912
ag1683
asg4139
(lp4913
(I431
I572
tp4914
a(I465
I583
tp4915
asg357
(lp4916
(I1730
I874
tp4917
ag3197
as(I432
I1981
tp4918
(lp4919
(I432
I1963
tp4920
ag1243
ag3934
asg4529
(lp4921
(I49
I576
tp4922
a(I44
I617
tp4923
as(I578
I364
tp4924
(lp4925
(I577
I344
tp4926
ag4557
asg4144
(lp4927
(I1945
I768
tp4928
ag3292
as(I70
I1722
tp4929
(lp4930
(I90
I1721
tp4931
ag3151
asg3529
(lp4932
(I1157
I1115
tp4933
ag2360
as(I218
I1979
tp4934
(lp4935
(I233
I1995
tp4936
a(I203
I1963
tp4937
as(I1015
I118
tp4938
(lp4939
(I1001
I102
tp4940
ag599
as(I270
I1805
tp4941
(lp4942
(I271
I1827
tp4943
ag2816
as(I486
I254
tp4944
(lp4945
(I464
I254
tp4946
ag701
asg2376
(lp4947
(I1989
I817
tp4948
a(I1953
I834
tp4949
asg4039
(lp4950
(I1211
I1344
tp4951
ag4863
asg441
(lp4952
(I1432
I917
tp4953
ag3997
as(I1327
I1417
tp4954
(lp4955
(I1339
I1417
tp4956
asg288
(lp4957
(I1512
I421
tp4958
a(I1543
I397
tp4959
as(I119
I2002
tp4960
(lp4961
(I116
I1987
tp4962
asg2390
(lp4963
(I1428
I564
tp4964
ag4805
asg3397
(lp4965
(I664
I254
tp4966
a(I704
I238
tp4967
as(I110
I867
tp4968
(lp4969
(I117
I885
tp4970
a(I103
I849
tp4971
asg1434
(lp4972
(I1989
I265
tp4973
asg509
(lp4974
(I1489
I1738
tp4975
a(I1530
I1738
tp4976
asg2553
(lp4977
(I1195
I1417
tp4978
ag1353
asg361
(lp4979
(I110
I1820
tp4980
ag3088
as(I1626
I1960
tp4981
(lp4982
(I1630
I1980
tp4983
a(I1607
I1948
tp4984
asg4284
(lp4985
(I1897
I1739
tp4986
a(I1905
I1696
tp4987
asg3895
(lp4988
(I1485
I808
tp4989
ag4392
as(I887
I826
tp4990
(lp4991
(I875
I845
tp4992
a(I899
I809
tp4993
a(I871
I817
tp4994
asg4847
(lp4995
(I828
I1708
tp4996
a(I800
I1675
tp4997
as(I1572
I1897
tp4998
(lp4999
(I1561
I1882
tp5000
ag2325
as(I1227
I1721
tp5001
(lp5002
(I1207
I1714
tp5003
ag4554
asg3174
(lp5004
(I162
I999
tp5005
ag3490
asg1272
(lp5006
(I230
I1408
tp5007
ag1763
asg2226
(lp5008
(I1189
I1346
tp5009
ag4349
ag4036
asg2858
(lp5010
(I753
I492
tp5011
ag1109
asg1927
(lp5012
(I1323
I1639
tp5013
ag1966
asg3012
(lp5014
(I376
I1512
tp5015
ag2873
as(I1348
I1359
tp5016
(lp5017
(I1349
I1378
tp5018
ag3940
as(I395
I387
tp5019
(lp5020
(I401
I370
tp5021
ag4247
asg1575
(lp5022
(I1736
I491
tp5023
a(I1699
I513
tp5024
asg1724
(lp5025
(I350
I564
tp5026
ag2243
as(I791
I102
tp5027
(lp5028
(I774
I114
tp5029
ag1435
asg2545
(lp5030
(I516
I1890
tp5031
a(I473
I1893
tp5032
asg972
(lp5033
(I1678
I59
tp5034
asg4920
(lp5035
g4918
ag3552
asg4276
(lp5036
(I110
I1720
tp5037
ag3218
as(I112
I1605
tp5038
(lp5039
(I128
I1619
tp5040
ag3299
as(I1900
I390
tp5041
(lp5042
(I1888
I373
tp5043
a(I1911
I408
tp5044
as(I1572
I1741
tp5045
(lp5046
(I1551
I1739
tp5047
a(I1593
I1744
tp5048
asg3950
(lp5049
(I1556
I880
tp5050
ag2205
as(I729
I987
tp5051
(lp5052
(I724
I969
tp5053
ag1872
asg2958
(lp5054
(I1236
I1762
tp5055
ag2333
as(I1449
I1925
tp5056
(lp5057
(I1434
I1933
tp5058
a(I1464
I1917
tp5059
as(I357
I772
tp5060
(lp5061
(I354
I751
tp5062
a(I360
I793
tp5063
as(I930
I530
tp5064
(lp5065
(I950
I523
tp5066
ag297
as(I402
I1451
tp5067
(lp5068
(I424
I1451
tp5069
a(I380
I1448
tp5070
as(I109
I1920
tp5071
(lp5072
(I88
I1914
tp5073
ag4590
asg5053
(lp5074
g5051
a(I730
I963
tp5075
ag1592
asg1379
(lp5076
(I1972
I622
tp5077
a(I1994
I659
tp5078
as(I1455
I1932
tp5079
(lp5080
(I1440
I1942
tp5081
a(I1464
I1917
tp5082
asg732
(lp5083
(I869
I99
tp5084
ag2527
asg1469
(lp5085
(I213
I590
tp5086
a(I216
I551
tp5087
as(I787
I869
tp5088
(lp5089
(I775
I886
tp5090
a(I799
I852
tp5091
asg1063
(lp5092
(I921
I106
tp5093
ag252
asg2105
(lp5094
(I101
I303
tp5095
a(I68
I289
tp5096
asg4628
(lp5097
(I1539
I439
tp5098
ag2616
asg251
(lp5099
(I1086
I1761
tp5100
ag205
as(I235
I272
tp5101
(lp5102
(I255
I266
tp5103
ag3017
asg3738
(lp5104
(I270
I308
tp5105
a(I301
I290
tp5106
asg4206
(lp5107
g4204
a(I986
I1791
tp5108
ag665
asg3262
(lp5109
(I1033
I234
tp5110
a(I1048
I274
tp5111
as(I1942
I873
tp5112
(lp5113
(I1943
I894
tp5114
a(I1943
I851
tp5115
as(I974
I707
tp5116
(lp5117
(I955
I697
tp5118
ag4794
as(I1417
I1939
tp5119
(lp5120
(I1422
I1945
tp5121
ag2844
a(I1434
I1933
tp5122
as(I321
I1281
tp5123
(lp5124
(I311
I1262
tp5125
ag2452
as(I112
I1806
tp5126
(lp5127
(I91
I1799
tp5128
a(I103
I1785
tp5129
ag2134
a(I112
I1785
tp5130
ag3560
asg833
(lp5131
(I1097
I744
tp5132
a(I1097
I716
tp5133
as(I653
I417
tp5134
(lp5135
(I632
I414
tp5136
ag2870
as(I140
I1870
tp5137
(lp5138
(I155
I1886
tp5139
ag2208
as(I1268
I1471
tp5140
(lp5141
(I1262
I1488
tp5142
a(I1271
I1453
tp5143
as(I605
I1613
tp5144
(lp5145
(I606
I1592
tp5146
a(I602
I1635
tp5147
asg2296
(lp5148
(I1048
I1479
tp5149
ag4695
as(I704
I1303
tp5150
(lp5151
(I693
I1289
tp5152
ag221
asg3957
(lp5153
(I1785
I240
tp5154
a(I1749
I247
tp5155
as(I267
I840
tp5156
(lp5157
(I259
I819
tp5158
asg3930
(lp5159
(I1066
I1357
tp5160
ag905
asg4723
(lp5161
(I374
I540
tp5162
ag1721
as(I1519
I346
tp5163
(lp5164
(I1532
I361
tp5165
a(I1503
I336
tp5166
asg3993
(lp5167
(I1823
I161
tp5168
a(I1865
I174
tp5169
asg2825
(lp5170
(I718
I64
tp5171
ag4277
as(I126
I1410
tp5172
(lp5173
(I112
I1396
tp5174
ag2037
as(I281
I549
tp5175
(lp5176
(I292
I540
tp5177
ag3465
as(I800
I1785
tp5178
(lp5179
(I791
I1806
tp5180
a(I811
I1767
tp5181
asg1279
(lp5182
(I235
I2007
tp5183
a(I233
I1995
tp5184
as(I389
I1778
tp5185
(lp5186
(I409
I1786
tp5187
a(I369
I1769
tp5188
as(I235
I224
tp5189
(lp5190
(I222
I208
tp5191
a(I251
I237
tp5192
as(I917
I1865
tp5193
(lp5194
(I938
I1860
tp5195
ag3131
asg1199
(lp5196
(I1458
I192
tp5197
ag2113
as(I1770
I186
tp5198
(lp5199
(I1791
I184
tp5200
ag1928
asg5122
(lp5201
(I1417
I1939
tp5202
ag5056
asg2792
(lp5203
(I128
I1516
tp5204
a(I159
I1519
tp5205
a(I160
I1539
tp5206
as(I453
I202
tp5207
(lp5208
(I437
I189
tp5209
a(I439
I216
tp5210
ag2003
asg1049
(lp5211
g1047
a(I1045
I1787
tp5212
as(I352
I526
tp5213
(lp5214
(I372
I519
tp5215
a(I334
I514
tp5216
asg5130
(lp5217
(I112
I1806
tp5218
a(I111
I1765
tp5219
asg1824
(lp5220
(I60
I1898
tp5221
asg3077
(lp5222
(I518
I156
tp5223
ag693
as(I691
I310
tp5224
(lp5225
(I702
I329
tp5226
a(I685
I329
tp5227
a(I698
I291
tp5228
asg4100
(lp5229
(I1729
I918
tp5230
ag2567
as(I37
I894
tp5231
(lp5232
(I44
I913
tp5233
as(I522
I1288
tp5234
(lp5235
(I538
I1304
tp5236
ag3937
asg4678
(lp5237
(I312
I1890
tp5238
a(I352
I1888
tp5239
asg5188
(lp5240
(I389
I1778
tp5241
ag3977
as(I67
I1133
tp5242
(lp5243
(I85
I1126
tp5244
ag3530
asg236
(lp5245
(I115
I1635
tp5246
ag3266
as(I1762
I276
tp5247
(lp5248
(I1747
I263
tp5249
ag3541
asg2123
(lp5250
(I741
I170
tp5251
ag3847
asg4801
(lp5252
(I743
I400
tp5253
ag375
as(I1295
I1540
tp5254
(lp5255
(I1289
I1520
tp5256
a(I1301
I1560
tp5257
as(I46
I1801
tp5258
(lp5259
(I46
I1816
tp5260
a(I66
I1798
tp5261
asg4714
(lp5262
(I475
I752
tp5263
ag2658
asg4260
(lp5264
(I273
I1211
tp5265
ag3247
as(I1982
I58
tp5266
(lp5267
(I1982
I36
tp5268
asg646
(lp5269
g644
a(I971
I1891
tp5270
as(I975
I1940
tp5271
(lp5272
(I982
I1929
tp5273
asg2186
(lp5274
(I446
I1451
tp5275
ag5067
as(I603
I69
tp5276
(lp5277
(I617
I54
tp5278
ag1318
asg3210
(lp5279
g3208
ag5276
asg1055
(lp5280
(I880
I1906
tp5281
a(I837
I1899
tp5282
as(I169
I1938
tp5283
(lp5284
(I150
I1945
tp5285
ag387
asg1506
(lp5286
g1504
ag1141
as(I252
I692
tp5287
(lp5288
(I235
I679
tp5289
a(I268
I706
tp5290
as(I293
I1781
tp5291
(lp5292
(I313
I1786
tp5293
ag4178
asg2147
(lp5294
(I432
I493
tp5295
ag2337
asg3163
(lp5296
(I460
I1598
tp5297
a(I458
I1558
tp5298
as(I131
I922
tp5299
(lp5300
(I113
I929
tp5301
ag1580
ag293
asg5192
(lp5302
(I235
I224
tp5303
ag4268
asg4923
(lp5304
(I47
I596
tp5305
a(I41
I636
tp5306
asg609
(lp5307
g607
ag5079
asg1946
(lp5308
(I937
I689
tp5309
ag5116
as(I1747
I263
tp5310
(lp5311
(I1731
I252
tp5312
ag5247
asg4737
(lp5313
(I1002
I492
tp5314
a(I989
I505
tp5315
as(I1585
I555
tp5316
(lp5317
(I1587
I537
tp5318
a(I1587
I574
tp5319
as(I1754
I479
tp5320
(lp5321
(I1775
I472
tp5322
ag1572
as(I170
I1895
tp5323
(lp5324
(I177
I1895
tp5325
ag691
asg4063
(lp5326
(I1002
I1371
tp5327
a(I960
I1384
tp5328
as(I1321
I331
tp5329
(lp5330
(I1308
I315
tp5331
ag669
asg724
(lp5332
(I329
I1751
tp5333
a(I289
I1731
tp5334
asg1019
(lp5335
(I847
I1797
tp5336
a(I889
I1788
tp5337
asg3058
(lp5338
(I553
I1319
tp5339
ag5234
as(I1441
I534
tp5340
(lp5341
(I1448
I519
tp5342
ag430
asg768
(lp5343
(I948
I1218
tp5344
as(I1117
I1578
tp5345
(lp5346
(I1110
I1589
tp5347
a(I1121
I1572
tp5348
a(I1109
I1560
tp5349
asg395
(lp5350
(I416
I187
tp5351
ag5207
as(I271
I1148
tp5352
(lp5353
(I271
I1129
tp5354
ag2770
a(I271
I1169
tp5355
asg3842
(lp5356
(I1471
I748
tp5357
ag1767
as(I1242
I1265
tp5358
(lp5359
(I1223
I1266
tp5360
ag4043
as(I1596
I793
tp5361
(lp5362
(I1596
I771
tp5363
ag3971
asg3816
(lp5364
(I324
I1689
tp5365
ag4409
as(I590
I234
tp5366
(lp5367
(I571
I242
tp5368
a(I608
I227
tp5369
asg3486
(lp5370
(I726
I955
tp5371
ag1774
as(I584
I287
tp5372
(lp5373
(I564
I296
tp5374
ag3147
asg5152
(lp5375
g5150
as(I1416
I594
tp5376
(lp5377
(I1410
I608
tp5378
ag411
asg2292
(lp5379
(I1813
I181
tp5380
ag3989
asg3644
(lp5381
(I423
I646
tp5382
a(I442
I676
tp5383
asg1931
(lp5384
(I1749
I186
tp5385
a(I1728
I151
tp5386
asg1740
(lp5387
(I1790
I540
tp5388
ag4836
asg4256
(lp5389
(I1300
I454
tp5390
a(I1298
I439
tp5391
a(I1258
I446
tp5392
asg2417
(lp5393
g2415
ag2692
ag2826
asg1682
(lp5394
(I1519
I737
tp5395
a(I1557
I752
tp5396
asg3051
(lp5397
(I302
I350
tp5398
a(I345
I359
tp5399
asg3172
(lp5400
(I162
I999
tp5401
ag277
asg5268
(lp5402
g5266
as(I810
I444
tp5403
(lp5404
(I799
I463
tp5405
a(I820
I424
tp5406
asg2922
(lp5407
(I318
I800
tp5408
ag3509
asg4898
(lp5409
(I1632
I490
tp5410
ag4645
as(I1671
I269
tp5411
(lp5412
(I1689
I259
tp5413
ag139
asg4162
(lp5414
(I1907
I978
tp5415
ag3592
asg2151
(lp5416
(I87
I1575
tp5417
a(I73
I1548
tp5418
as(I1551
I1739
tp5419
(lp5420
(I1530
I1738
tp5421
ag5045
asg5396
(lp5422
(I1535
I749
tp5423
a(I1576
I744
tp5424
as(I1920
I426
tp5425
(lp5426
(I1911
I408
tp5427
ag3030
as(I713
I1816
tp5428
(lp5429
(I704
I1836
tp5430
ag3398
as(I216
I1760
tp5431
(lp5432
(I234
I1760
tp5433
ag4831
as(I1947
I1027
tp5434
(lp5435
(I1968
I1021
tp5436
a(I1928
I1016
tp5437
asg4915
(lp5438
(I451
I567
tp5439
a(I481
I597
tp5440
as(I247
I395
tp5441
(lp5442
(I229
I402
tp5443
a(I266
I392
tp5444
ag2329
as(I451
I1237
tp5445
(lp5446
(I472
I1245
tp5447
ag2153
asg2351
(lp5448
(I1279
I64
tp5449
asg5383
(lp5450
(I423
I669
tp5451
a(I464
I676
tp5452
asg36
(lp5453
g34
ag1690
ag4145
asg4786
(lp5454
(I302
I1538
tp5455
ag4232
asg2780
(lp5456
(I1364
I493
tp5457
ag3699
asg30
(lp5458
(I101
I1898
tp5459
ag1821
asg804
(lp5460
(I1181
I1193
tp5461
a(I1218
I1183
tp5462
as(I1024
I1842
tp5463
(lp5464
(I1011
I1854
tp5465
ag1988
asg1349
(lp5466
(I1886
I625
tp5467
a(I1929
I618
tp5468
asg3489
(lp5469
(I1245
I692
tp5470
ag4726
asg4878
(lp5471
(I347
I242
tp5472
a(I366
I260
tp5473
ag757
asg5328
(lp5474
(I981
I1380
tp5475
as(I261
I1694
tp5476
(lp5477
(I273
I1710
tp5478
a(I250
I1682
tp5479
asg3773
(lp5480
(I1096
I1696
tp5481
a(I1092
I1730
tp5482
ag3907
as(I211
I191
tp5483
(lp5484
(I196
I176
tp5485
a(I222
I208
tp5486
as(I1043
I1725
tp5487
(lp5488
(I1056
I1719
tp5489
asg4834
(lp5490
(I200
I1768
tp5491
a(I191
I1797
tp5492
a(I172
I1765
tp5493
a(I176
I1787
tp5494
as(I1036
I581
tp5495
(lp5496
(I1056
I580
tp5497
ag3476
asg92
(lp5498
(I1340
I725
tp5499
ag1095
asg5219
(lp5500
(I112
I1785
tp5501
a(I111
I1745
tp5502
asg4072
(lp5503
g4070
ag1562
a(I206
I679
tp5504
asg1444
(lp5505
(I492
I1693
tp5506
a(I456
I1686
tp5507
asg4298
(lp5508
(I1899
I843
tp5509
ag2198
ag4243
asg3387
(lp5510
(I1606
I249
tp5511
ag4530
asg37
(lp5512
(I1390
I1860
tp5513
a(I1424
I1867
tp5514
asg4789
(lp5515
(I1282
I1180
tp5516
asg4905
(lp5517
(I129
I1726
tp5518
a(I158
I1752
tp5519
asg1472
(lp5520
(I406
I1635
tp5521
ag1300
asg3846
(lp5522
(I117
I516
tp5523
a(I113
I486
tp5524
as(I1705
I390
tp5525
(lp5526
(I1723
I399
tp5527
a(I1699
I371
tp5528
asg200
(lp5529
(I1187
I1722
tp5530
ag5001
asg2261
(lp5531
(I531
I255
tp5532
ag2459
a(I571
I242
tp5533
asg1888
(lp5534
(I1801
I728
tp5535
a(I1836
I750
tp5536
asg1755
(lp5537
(I395
I1356
tp5538
ag3675
asg4304
(lp5539
g4302
a(I1062
I1776
tp5540
asg1619
(lp5541
(I1985
I397
tp5542
ag2501
asg4460
(lp5543
(I599
I1656
tp5544
a(I591
I1698
tp5545
asg993
(lp5546
(I211
I400
tp5547
ag5441
asg1112
(lp5548
(I787
I482
tp5549
ag5403
asg3370
(lp5550
(I1614
I403
tp5551
ag81
as(I782
I1825
tp5552
(lp5553
(I773
I1845
tp5554
a(I791
I1806
tp5555
asg3182
(lp5556
(I328
I920
tp5557
a(I333
I958
tp5558
asg114
(lp5559
g112
ag3968
asg2566
(lp5560
(I1006
I1197
tp5561
ag4040
asg760
(lp5562
(I331
I272
tp5563
a(I301
I290
tp5564
as(I968
I1795
tp5565
(lp5566
(I986
I1791
tp5567
a(I964
I1805
tp5568
a(I949
I1800
tp5569
asg307
(lp5570
g305
ag4895
ag4333
as(I74
I1296
tp5571
(lp5572
(I52
I1298
tp5573
ag174
asg1071
(lp5574
(I708
I1436
tp5575
ag3344
asg2355
(lp5576
(I1980
I1670
tp5577
as(I1922
I1845
tp5578
(lp5579
(I1930
I1865
tp5580
ag4395
asg2740
(lp5581
(I342
I1001
tp5582
a(I333
I958
tp5583
asg567
(lp5584
(I312
I307
tp5585
a(I286
I299
tp5586
a(I316
I281
tp5587
asg1093
(lp5588
(I1183
I1268
tp5589
a(I1223
I1266
tp5590
asg399
(lp5591
(I1044
I1196
tp5592
asg2222
(lp5593
g2220
ag2487
asg332
(lp5594
g330
ag3160
ag4487
as(I65
I969
tp5595
(lp5596
(I57
I950
tp5597
ag2431
asg4622
(lp5598
(I98
I1885
tp5599
a(I142
I1892
tp5600
as(I1366
I1788
tp5601
(lp5602
(I1371
I1808
tp5603
a(I1360
I1769
tp5604
asg4633
(lp5605
(I1281
I1265
tp5606
asg2723
(lp5607
(I1238
I1517
tp5608
asg744
(lp5609
(I1396
I340
tp5610
ag4597
as(I1678
I1759
tp5611
(lp5612
(I1691
I1753
tp5613
ag489
asg3734
(lp5614
(I320
I675
tp5615
ag2732
asg5555
(lp5616
(I782
I1825
tp5617
ag5178
as(I1318
I1621
tp5618
(lp5619
(I1313
I1601
tp5620
a(I1310
I1637
tp5621
ag1924
asg1693
(lp5622
(I1378
I1827
tp5623
ag5601
asg3563
(lp5624
(I131
I1813
tp5625
a(I158
I1837
tp5626
a(I151
I1807
tp5627
as(I1731
I252
tp5628
(lp5629
(I1749
I247
tp5630
ag5310
ag3070
as(I1167
I1808
tp5631
(lp5632
(I1159
I1803
tp5633
ag2590
asg4546
(lp5634
(I1554
I839
tp5635
ag3947
as(I1579
I877
tp5636
(lp5637
(I1584
I856
tp5638
asg1730
(lp5639
(I258
I475
tp5640
ag2834
asg2758
(lp5641
(I1857
I748
tp5642
a(I1899
I749
tp5643
asg5024
(lp5644
(I1717
I502
tp5645
a(I1714
I527
tp5646
a(I1683
I504
tp5647
asg5504
(lp5648
(I203
I659
tp5649
ag531
as(I1957
I1933
tp5650
(lp5651
(I1950
I1912
tp5652
a(I1960
I1954
tp5653
asg1813
(lp5654
(I288
I1948
tp5655
a(I319
I1969
tp5656
asg2184
(lp5657
(I43
I1353
tp5658
ag5571
asg3146
(lp5659
(I994
I1436
tp5660
a(I950
I1436
tp5661
asg2312
(lp5662
(I1551
I582
tp5663
ag2546
asg5468
(lp5664
(I1908
I622
tp5665
ag1523
as(I414
I46
tp5666
(lp5667
(I414
I66
tp5668
asg4313
(lp5669
(I870
I774
tp5670
as(I243
I1390
tp5671
(lp5672
(I248
I1370
tp5673
ag1269
asg4474
(lp5674
(I66
I1911
tp5675
ag5071
as(I1068
I777
tp5676
(lp5677
(I1077
I764
tp5678
as(I1344
I1282
tp5679
(lp5680
(I1345
I1302
tp5681
a(I1343
I1262
tp5682
as(I91
I1398
tp5683
(lp5684
(I75
I1386
tp5685
a(I112
I1396
tp5686
asg2440
(lp5687
g2438
a(I1852
I1960
tp5688
asg3967
(lp5689
(I106
I1077
tp5690
ag2395
as(I409
I1733
tp5691
(lp5692
(I427
I1726
tp5693
a(I393
I1741
tp5694
asg2002
(lp5695
(I433
I1819
tp5696
ag2099
asg4106
(lp5697
(I1764
I525
tp5698
ag1737
asg2258
(lp5699
(I1649
I177
tp5700
a(I1629
I139
tp5701
asg4617
(lp5702
(I980
I1856
tp5703
a(I938
I1860
tp5704
asg809
(lp5705
(I218
I1893
tp5706
a(I246
I1916
tp5707
asg4000
(lp5708
(I1397
I942
tp5709
ag2556
asg2526
(lp5710
(I1350
I1397
tp5711
ag5016
asg1686
(lp5712
(I839
I868
tp5713
a(I875
I845
tp5714
asg2427
(lp5715
(I233
I885
tp5716
a(I205
I896
tp5717
as(I1655
I613
tp5718
(lp5719
(I1634
I613
tp5720
ag888
asg1591
(lp5721
(I1362
I1340
tp5722
asg3925
(lp5723
(I282
I1978
tp5724
ag1939
as(I98
I264
tp5725
(lp5726
(I87
I246
tp5727
a(I115
I278
tp5728
asg3635
(lp5729
(I1541
I378
tp5730
ag5163
as(I1331
I1262
tp5731
(lp5732
(I1343
I1262
tp5733
ag1951
asg2071
(lp5734
(I1447
I106
tp5735
a(I1439
I63
tp5736
as(I1694
I74
tp5737
(lp5738
(I1709
I90
tp5739
ag969
as(I917
I683
tp5740
(lp5741
(I898
I688
tp5742
ag1943
asg2229
(lp5743
(I168
I130
tp5744
ag2766
as(I1805
I1823
tp5745
(lp5746
(I1825
I1824
tp5747
ag1569
as(I1785
I822
tp5748
(lp5749
(I1802
I836
tp5750
a(I1768
I808
tp5751
asg5155
(lp5752
(I1767
I243
tp5753
ag5628
asg2043
(lp5754
(I424
I1189
tp5755
a(I433
I1146
tp5756
asg1657
(lp5757
(I1066
I1898
tp5758
ag2494
as(I1267
I1969
tp5759
(lp5760
(I1258
I1950
tp5761
a(I1278
I1987
tp5762
asg2340
(lp5763
(I476
I495
tp5764
ag1326
asg2970
(lp5765
(I187
I1961
tp5766
a(I219
I1991
tp5767
asg4892
(lp5768
(I926
I778
tp5769
ag2966
as(I100
I663
tp5770
(lp5771
(I119
I655
tp5772
ag1072
asg3291
(lp5773
(I1676
I564
tp5774
ag1149
asg4665
(lp5775
(I964
I80
tp5776
a(I1001
I102
tp5777
asg1207
(lp5778
(I637
I370
tp5779
a(I678
I367
tp5780
asg1389
(lp5781
(I1766
I395
tp5782
a(I1723
I399
tp5783
asg1108
(lp5784
(I1465
I685
tp5785
ag1426
as(I273
I1710
tp5786
(lp5787
(I293
I1717
tp5788
ag5476
asg785
(lp5789
(I212
I1928
tp5790
ag2092
asg2574
(lp5791
(I1098
I1595
tp5792
ag5345
asg639
(lp5793
(I1261
I243
tp5794
a(I1233
I249
tp5795
a(I1270
I231
tp5796
asg5440
(lp5797
(I465
I583
tp5798
ag3479
asg1075
(lp5799
(I82
I675
tp5800
a(I56
I708
tp5801
asg1260
(lp5802
g1258
ag3516
ag5725
as(I352
I1872
tp5803
(lp5804
(I351
I1856
tp5805
a(I352
I1888
tp5806
asg5091
(lp5807
(I787
I869
tp5808
a(I811
I834
tp5809
ag4910
asg610
(lp5810
(I1424
I1952
tp5811
ag85
asg2470
(lp5812
(I53
I1743
tp5813
ag1882
asg4134
(lp5814
(I1905
I718
tp5815
a(I1896
I694
tp5816
asg115
(lp5817
(I401
I454
tp5818
ag4747
asg2009
(lp5819
(I147
I1054
tp5820
ag709
as(I50
I292
tp5821
(lp5822
(I68
I289
tp5823
asg1364
(lp5824
(I1107
I1516
tp5825
ag3414
asg53
(lp5826
(I1166
I1347
tp5827
a(I1128
I1349
tp5828
as(I685
I329
tp5829
(lp5830
(I685
I349
tp5831
a(I691
I310
tp5832
asg2563
(lp5833
(I1856
I557
tp5834
ag2662
asg4782
(lp5835
(I1631
I1762
tp5836
ag2463
as(I1299
I1874
tp5837
(lp5838
(I1303
I1854
tp5839
a(I1305
I1893
tp5840
asg1462
(lp5841
(I143
I459
tp5842
ag4611
asg4937
(lp5843
(I218
I1979
tp5844
ag1431
as(I92
I1968
tp5845
(lp5846
(I73
I1978
tp5847
ag2171
asg5809
(lp5848
(I799
I852
tp5849
ag4026
asg3617
(lp5850
(I1524
I1942
tp5851
a(I1489
I1959
tp5852
asg5816
(lp5853
(I1892
I704
tp5854
ag2160
as(I176
I507
tp5855
(lp5856
(I178
I489
tp5857
a(I174
I524
tp5858
asg3136
(lp5859
(I610
I602
tp5860
ag23
asg4706
(lp5861
(I546
I796
tp5862
a(I577
I768
tp5863
asg4542
(lp5864
(I286
I1622
tp5865
ag918
asg5514
(lp5866
(I1404
I1872
tp5867
ag3113
asg5087
(lp5868
(I216
I571
tp5869
ag2033
asg3760
(lp5870
g3758
ag1365
as(I243
I1349
tp5871
(lp5872
(I225
I1337
tp5873
a(I248
I1370
tp5874
asg2284
(lp5875
(I1810
I1910
tp5876
ag1627
asg3285
(lp5877
(I199
I899
tp5878
asg263
(lp5879
(I547
I309
tp5880
ag5372
asg1144
(lp5881
(I435
I371
tp5882
ag3371
asg4327
(lp5883
(I493
I1809
tp5884
ag3337
asg4656
(lp5885
(I1346
I1321
tp5886
ag5679
asg5704
(lp5887
(I958
I1855
tp5888
ag5193
asg2712
(lp5889
(I1278
I1502
tp5890
ag5254
asg5736
(lp5891
(I1443
I85
tp5892
a(I1433
I42
tp5893
asg5751
(lp5894
(I1785
I822
tp5895
ag4148
asg2180
(lp5896
(I366
I836
tp5897
ag2674
asg512
(lp5898
g510
asg2020
(lp5899
(I1468
I308
tp5900
a(I1448
I330
tp5901
a(I1485
I331
tp5902
asg372
(lp5903
g370
ag5683
asg2451
(lp5904
(I170
I1902
tp5905
ag5137
asg4029
(lp5906
(I819
I814
tp5907
ag2797
asg3393
(lp5908
(I1558
I673
tp5909
ag4015
asg3143
(lp5910
(I1397
I409
tp5911
a(I1384
I428
tp5912
a(I1369
I393
tp5913
as(I1505
I1799
tp5914
(lp5915
(I1503
I1820
tp5916
ag155
asg1806
(lp5917
(I272
I1891
tp5918
a(I271
I1849
tp5919
asg5334
(lp5920
(I309
I1741
tp5921
ag705
asg244
(lp5922
(I490
I1257
tp5923
ag5445
asg5306
(lp5924
(I44
I617
tp5925
asg2796
(lp5926
(I815
I1897
tp5927
ag4416
asg4421
(lp5928
(I378
I500
tp5929
ag5213
ag4720
asg5298
(lp5930
(I461
I1577
tp5931
a(I449
I1539
tp5932
asg3217
(lp5933
(I413
I583
tp5934
a(I379
I606
tp5935
asg2679
(lp5936
(I367
I878
tp5937
ag2646
asg3047
(lp5938
g3045
ag5631
ag1731
asg5147
(lp5939
(I605
I1613
tp5940
ag4457
asg250
(lp5941
g248
a(I1103
I1734
tp5942
ag3318
asg457
(lp5943
g455
a(I1124
I1567
tp5944
as(I1401
I315
tp5945
(lp5946
(I1413
I331
tp5947
ag2715
asg2434
(lp5948
(I73
I988
tp5949
a(I88
I1027
tp5950
asg4560
(lp5951
(I596
I370
tp5952
ag1204
asg2052
(lp5953
(I728
I1647
tp5954
a(I692
I1632
tp5955
asg4412
(lp5956
(I295
I1663
tp5957
ag4539
as(I324
I395
tp5958
(lp5959
(I305
I393
tp5960
ag815
asg3033
(lp5961
(I1924
I446
tp5962
ag4768
asg3690
(lp5963
(I203
I1335
tp5964
ag5871
asg1480
(lp5965
(I110
I1987
tp5966
a(I136
I1986
tp5967
ag4960
asg5912
(lp5968
(I1378
I409
tp5969
a(I1387
I448
tp5970
asg5621
(lp5971
(I1318
I1621
tp5972
ag4101
asg122
(lp5973
(I442
I256
tp5974
ag4944
asg5874
(lp5975
(I243
I1349
tp5976
ag5671
as(I376
I958
tp5977
(lp5978
(I398
I958
tp5979
ag407
asg2906
(lp5980
(I1111
I1391
tp5981
a(I1109
I1353
tp5982
asg5913
(lp5983
(I1378
I409
tp5984
ag884
asg635
(lp5985
(I1115
I1476
tp5986
ag1361
as(I486
I676
tp5987
(lp5988
(I464
I676
tp5989
a(I500
I690
tp5990
asg4608
(lp5991
(I1366
I242
tp5992
ag3308
as(I916
I53
tp5993
(lp5994
(I927
I67
tp5995
ag138
a(I919
I65
tp5996
asg1853
(lp5997
(I799
I166
tp5998
a(I820
I132
tp5999
as(I1349
I531
tp6000
(lp6001
(I1337
I550
tp6002
ag4594
as(I101
I2009
tp6003
(lp6004
(I104
I1988
tp6005
as(I1939
I130
tp6006
(lp6007
(I1958
I141
tp6008
ag2655
asg2518
(lp6009
(I868
I1839
tp6010
ag1748
as(I1943
I851
tp6011
(lp6012
(I1953
I834
tp6013
a(I1928
I859
tp6014
a(I1942
I873
tp6015
asg1641
(lp6016
(I554
I1750
tp6017
a(I526
I1783
tp6018
as(I1927
I781
tp6019
(lp6020
(I1911
I796
tp6021
ag4140
asg1333
(lp6022
(I1271
I1376
tp6023
a(I1269
I1342
tp6024
asg2993
(lp6025
(I216
I343
tp6026
a(I259
I346
tp6027
asg2095
(lp6028
g2092
a(I160
I1859
tp6029
asg3821
(lp6030
(I1384
I1551
tp6031
ag2934
as(I1918
I997
tp6032
(lp6033
(I1928
I1016
tp6034
ag4159
asg2529
(lp6035
(I906
I82
tp6036
a(I921
I76
tp6037
asg1972
(lp6038
g1970
ag965
ag5578
as(I1358
I1963
tp6039
(lp6040
(I1377
I1953
tp6041
a(I1338
I1975
tp6042
asg5545
(lp6043
(I595
I1677
tp6044
ag1217
asg2930
(lp6045
(I48
I329
tp6046
ag1296
as(I985
I1274
tp6047
(lp6048
(I1006
I1273
tp6049
ag3410
as(I182
I612
tp6050
(lp6051
(I173
I629
tp6052
a(I197
I601
tp6053
asg3250
(lp6054
(I299
I1246
tp6055
ag5123
asg1488
(lp6056
(I1296
I299
tp6057
ag5329
asg4882
(lp6058
(I921
I76
tp6059
a(I916
I53
tp6060
asg1558
(lp6061
(I373
I1740
tp6062
ag143
as(I318
I498
tp6063
(lp6064
(I334
I514
tp6065
ag3186
asg2754
(lp6066
(I252
I990
tp6067
a(I242
I969
tp6068
a(I252
I948
tp6069
asg5337
(lp6070
(I868
I1792
tp6071
ag1254
asg2641
(lp6072
(I217
I667
tp6073
ag5287
asg4889
(lp6074
(I946
I1373
tp6075
ag4228
asg3583
(lp6076
g3580
ag2448
asg6053
(lp6077
(I182
I612
tp6078
ag1466
as(I1928
I307
tp6079
(lp6080
(I1913
I292
tp6081
ag697
asg4538
(lp6082
(I250
I1065
tp6083
a(I221
I1084
tp6084
as(I948
I1415
tp6085
(lp6086
(I950
I1436
tp6087
a(I947
I1394
tp6088
asg4231
(lp6089
(I913
I1362
tp6090
a(I876
I1346
tp6091
as(I1288
I625
tp6092
(lp6093
(I1300
I625
tp6094
ag1649
asg4736
(lp6095
g4734
a(I1007
I510
tp6096
ag3856
asg4757
(lp6097
(I998
I1866
tp6098
ag5463
asg2654
(lp6099
(I66
I432
tp6100
a(I72
I392
tp6101
asg2800
(lp6102
(I806
I773
tp6103
ag2977
asg6088
(lp6104
(I948
I1415
tp6105
ag4886
as(I868
I1328
tp6106
(lp6107
(I876
I1346
tp6108
ag19
asg300
(lp6109
(I909
I535
tp6110
ag3351
asg4997
(lp6111
(I816
I1689
tp6112
ag4761
as(I686
I1877
tp6113
(lp6114
(I682
I1898
tp6115
ag3951
as(I363
I815
tp6116
(lp6117
(I360
I793
tp6118
ag2177
asg5355
(lp6119
(I271
I1148
tp6120
ag4740
asg932
(lp6121
(I130
I1952
tp6122
ag5283
asg1516
(lp6123
g1514
ag4398
asg5767
(lp6124
(I204
I1976
tp6125
ag1276
asg2027
(lp6126
(I959
I1951
tp6127
a(I997
I1952
tp6128
asg4152
(lp6129
(I1751
I795
tp6130
a(I1749
I755
tp6131
as(I1844
I328
tp6132
(lp6133
(I1826
I317
tp6134
a(I1860
I341
tp6135
asg5990
(lp6136
(I486
I676
tp6137
a(I506
I711
tp6138
asg4235
(lp6139
(I303
I1494
tp6140
asg1977
(lp6141
(I1822
I845
tp6142
ag5748
asg4605
(lp6143
(I1109
I1353
tp6144
a(I1108
I1312
tp6145
asg2152
(lp6146
(I87
I1575
tp6147
a(I118
I1591
tp6148
asg4563
(lp6149
(I1278
I263
tp6150
a(I1287
I222
tp6151
as(I1410
I608
tp6152
(lp6153
(I1432
I608
tp6154
ag1947
ag5376
asg4875
(lp6155
(I1354
I1041
tp6156
a(I1321
I1064
tp6157
as(I271
I1129
tp6158
(lp6159
(I270
I1110
tp6160
ag5352
as(I1825
I1824
tp6161
(lp6162
(I1841
I1836
tp6163
ag5745
asg5216
(lp6164
(I352
I526
tp6165
ag6063
as(I260
I929
tp6166
(lp6167
(I272
I913
tp6168
ag4669
as(I1863
I834
tp6169
(lp6170
(I1885
I832
tp6171
ag3746
asg5444
(lp6172
(I247
I395
tp6173
ag2812
asg134
(lp6174
(I1136
I571
tp6175
ag1168
asg3871
(lp6176
(I416
I167
tp6177
a(I415
I127
tp6178
asg853
(lp6179
(I677
I1914
tp6180
a(I686
I1919
tp6181
ag6113
as(I271
I1827
tp6182
(lp6183
(I271
I1849
tp6184
ag4941
asg1132
(lp6185
(I1027
I1272
tp6186
ag6047
asg1458
(lp6187
(I1962
I1900
tp6188
ag2700
as(I1885
I183
tp6189
(lp6190
(I1865
I174
tp6191
ag3251
asg3519
(lp6192
(I79
I227
tp6193
a(I45
I207
tp6194
asg2176
(lp6195
g2174
ag5855
asg5044
(lp6196
(I1900
I390
tp6197
ag5425
asg5717
(lp6198
(I219
I890
tp6199
ag4339
ag3282
a(I198
I875
tp6200
asg3755
(lp6201
(I505
I741
tp6202
a(I506
I711
tp6203
as(I1503
I1820
tp6204
(lp6205
(I1492
I1837
tp6206
ag5914
asg1011
(lp6207
(I1807
I309
tp6208
ag6132
asg5932
(lp6209
(I458
I1558
tp6210
ag4567
asg162
(lp6211
(I694
I429
tp6212
a(I733
I419
tp6213
asg6042
(lp6214
(I1358
I1963
tp6215
ag1313
asg3595
(lp6216
(I1879
I945
tp6217
ag1446
asg329
(lp6218
(I1614
I606
tp6219
ag5718
asg5999
(lp6220
(I809
I149
tp6221
ag3628
asg5111
(lp6222
(I1044
I253
tp6223
ag4095
as(I1490
I853
tp6224
(lp6225
(I1507
I839
tp6226
ag4023
asg579
(lp6227
(I1511
I518
tp6228
a(I1469
I524
tp6229
as(I639
I185
tp6230
(lp6231
(I617
I185
tp6232
ag2838
asg2374
(lp6233
(I1699
I1910
tp6234
ag4869
asg3901
(lp6235
(I1594
I750
tp6236
ag5361
asg3173
(lp6237
(I162
I999
tp6238
ag477
asg4310
(lp6239
(I1434
I1620
tp6240
ag914
asg1246
(lp6241
(I414
I1975
tp6242
ag3103
asg3464
(lp6243
(I265
I1072
tp6244
a(I270
I1110
tp6245
asg3106
(lp6246
(I374
I1977
tp6247
a(I355
I1999
tp6248
a(I336
I1975
tp6249
ag3157
asg6135
(lp6250
(I1844
I328
tp6251
ag2301
asg4644
(lp6252
(I938
I1690
tp6253
asg1711
(lp6254
g1709
asg4408
(lp6255
(I1931
I884
tp6256
a(I1958
I908
tp6257
ag5112
asg2462
(lp6258
(I552
I228
tp6259
a(I553
I186
tp6260
as(I702
I329
tp6261
(lp6262
(I716
I345
tp6263
ag5224
asg3243
(lp6264
(I422
I1673
tp6265
a(I386
I1696
tp6266
asg5701
(lp6267
(I1639
I158
tp6268
ag3726
asg4653
(lp6269
(I1262
I1931
tp6270
ag5759
asg3150
(lp6271
(I604
I278
tp6272
a(I644
I262
tp6273
asg3829
(lp6274
(I703
I188
tp6275
ag2120
asg3269
(lp6276
(I155
I1649
tp6277
ag2237
asg181
(lp6278
(I282
I613
tp6279
a(I244
I624
tp6280
asg5096
(lp6281
(I85
I295
tp6282
ag5821
as(I1968
I1021
tp6283
(lp6284
(I1988
I1013
tp6285
ag5434
asg4200
(lp6286
(I1870
I456
tp6287
ag3994
asg1046
(lp6288
(I1209
I1890
tp6289
a(I1188
I1928
tp6290
asg5424
(lp6291
(I1557
I752
tp6292
ag3898
asg154
(lp6293
(I835
I1999
tp6294
a(I795
I1983
tp6295
asg6128
(lp6296
(I978
I1958
tp6297
a(I1014
I1939
tp6298
asg627
(lp6299
(I254
I1767
tp6300
a(I250
I1773
tp6301
ag5431
asg1306
(lp6302
(I180
I1533
tp6303
a(I142
I1532
tp6304
asg4580
(lp6305
(I82
I484
tp6306
ag3851
as(I697
I1610
tp6307
(lp6308
(I701
I1588
tp6309
a(I692
I1632
tp6310
asg5032
(lp6311
(I495
I1892
tp6312
ag4899
asg1443
(lp6313
g1441
ag3231
as(I1920
I751
tp6314
(lp6315
(I1899
I749
tp6316
ag649
ag1932
asg2746
(lp6317
(I351
I1044
tp6318
ag2737
asg4586
(lp6319
(I116
I334
tp6320
ag2102
asg1637
(lp6321
(I458
I1661
tp6322
ag3822
asg1295
(lp6323
(I1127
I249
tp6324
ag1694
asg2347
(lp6325
g2345
ag6283
asg5777
(lp6326
(I983
I90
tp6327
ag4938
asg6245
(lp6328
(I268
I1091
tp6329
ag6158
asg2678
(lp6330
(I367
I878
tp6331
ag4573
asg4967
(lp6332
(I684
I246
tp6333
ag3388
asg3090
(lp6334
g3088
ag5258
asg3599
(lp6335
(I1185
I1307
tp6336
ag1090
asg316
(lp6337
(I1319
I2000
tp6338
a(I1319
I1985
tp6339
as(I262
I1523
tp6340
(lp6341
(I266
I1542
tp6342
ag3556
as(I1262
I1488
tp6343
(lp6344
(I1242
I1480
tp6345
ag2709
ag5140
asg3963
(lp6346
g3669
a(I189
I1882
tp6347
ag5323
asg5166
(lp6348
(I1519
I346
tp6349
ag65
asg3193
(lp6350
(I414
I106
tp6351
a(I414
I66
tp6352
asg5935
(lp6353
(I398
I599
tp6354
ag3062
asg3787
(lp6355
(I85
I856
tp6356
a(I110
I867
tp6357
a(I96
I829
tp6358
asg5181
(lp6359
(I800
I1785
tp6360
ag794
asg1622
(lp6361
g1620
ag5803
asg2314
(lp6362
(I247
I1952
tp6363
ag3922
asg325
(lp6364
(I688
I496
tp6365
ag1713
asg3442
(lp6366
(I984
I1811
tp6367
a(I964
I1805
tp6368
ag3574
asg6352
(lp6369
(I414
I86
tp6370
ag5666
asg492
(lp6371
(I1679
I1779
tp6372
ag2622
asg3097
(lp6373
(I1376
I702
tp6374
ag89
as(I1899
I1761
tp6375
(lp6376
(I1903
I1782
tp6377
ag4281
asg3698
(lp6378
(I767
I1866
tp6379
ag5552
asg692
(lp6380
g689
ag27
asg5244
(lp6381
g5242
as(I822
I693
tp6382
(lp6383
(I808
I679
tp6384
ag1837
as(I992
I1921
tp6385
(lp6386
(I982
I1929
tp6387
ag3358
ag2923
as(I1492
I1837
tp6388
(lp6389
(I1475
I1850
tp6390
ag6204
asg984
(lp6391
g982
ag713
as(I617
I185
tp6392
(lp6393
(I596
I186
tp6394
ag6230
asg6091
(lp6395
(I893
I1357
tp6396
ag6106
asg1773
(lp6397
(I685
I1655
tp6398
ag673
asg5290
(lp6399
(I252
I692
tp6400
a(I283
I722
tp6401
asg4008
(lp6402
(I123
I1452
tp6403
ag108
asg5604
(lp6404
(I1366
I1788
tp6405
ag3052
asg3986
(lp6406
(I1319
I625
tp6407
a(I1300
I603
tp6408
ag6092
asg2951
(lp6409
(I1218
I617
tp6410
ag3314
as(I2010
I1989
tp6411
(lp6412
(I2006
I1969
tp6413
asg764
(lp6414
(I1457
I499
tp6415
a(I1469
I524
tp6416
a(I1430
I511
tp6417
ag5340
asg5783
(lp6418
(I1745
I397
tp6419
ag5525
asg1961
(lp6420
(I1302
I408
tp6421
ag4481
asg6280
(lp6422
(I265
I622
tp6423
ag3205
asg4949
(lp6424
(I1970
I822
tp6425
ag6011
as(I139
I1959
tp6426
(lp6427
(I118
I1966
tp6428
ag3788
asg465
(lp6429
(I1909
I1804
tp6430
ag6375
asg3664
(lp6431
(I156
I1985
tp6432
a(I116
I1987
tp6433
asg668
(lp6434
(I1025
I1783
tp6435
a(I1049
I1778
tp6436
a(I1047
I1788
tp6437
as(I511
I1797
tp6438
(lp6439
(I526
I1783
tp6440
ag4324
asg5270
(lp6441
(I958
I1902
tp6442
ag4124
asg875
(lp6443
(I1434
I409
tp6444
ag3140
asg957
(lp6445
(I624
I495
tp6446
ag522
asg4856
(lp6447
(I1181
I1492
tp6448
a(I1153
I1525
tp6449
asg3808
(lp6450
(I943
I75
tp6451
ag5993
asg4371
(lp6452
(I902
I709
tp6453
ag5740
as(I97
I1849
tp6454
(lp6455
(I112
I1866
tp6456
ag2106
asg3139
(lp6457
(I1161
I346
tp6458
ag3781
as(I91
I1799
tp6459
(lp6460
g5261
ag5126
asg5762
(lp6461
(I1267
I1969
tp6462
a(I1292
I2001
tp6463
asg6401
(lp6464
(I268
I706
tp6465
ag4087
asg5075
(lp6466
(I724
I969
tp6467
ag3482
asg5399
(lp6468
(I324
I355
tp6469
ag986
asg4993
(lp6470
(I887
I826
tp6471
ag237
as(I1406
I1490
tp6472
(lp6473
(I1423
I1490
tp6474
ag2913
asg4275
(lp6475
g4273
ag4929
asg587
(lp6476
(I1519
I604
tp6477
ag555
asg4797
(lp6478
(I994
I714
tp6479
a(I1032
I697
tp6480
asg1881
(lp6481
g1879
ag2367
asg2855
(lp6482
(I1545
I273
tp6483
ag4491
asg2394
(lp6484
(I1051
I1429
tp6485
ag3040
asg4813
(lp6486
(I430
I1794
tp6487
ag5185
asg1809
(lp6488
(I1761
I980
tp6489
ag3749
asg2899
(lp6490
(I810
I658
tp6491
ag6382
asg1805
(lp6492
(I272
I1891
tp6493
ag334
asg5048
(lp6494
(I1572
I1741
tp6495
ag3691
asg2661
(lp6496
(I506
I782
tp6497
ag4703
asg2112
(lp6498
(I366
I1698
tp6499
ag3813
as(I1982
I707
tp6500
(lp6501
(I1967
I708
tp6502
asg5533
(lp6503
(I552
I249
tp6504
ag5366
asg1980
(lp6505
(I778
I200
tp6506
ag1850
asg3357
(lp6507
g3355
asg2705
(lp6508
(I819
I71
tp6509
as(I437
I1682
tp6510
(lp6511
(I456
I1686
tp6512
ag3240
as(I58
I729
tp6513
(lp6514
(I56
I708
tp6515
ag3084
asg2762
(lp6516
(I1126
I74
tp6517
ag2963
asg2586
(lp6518
(I164
I798
tp6519
a(I134
I767
tp6520
asg1156
(lp6521
(I1217
I432
tp6522
ag3567
asg4663
(lp6523
(I1555
I324
tp6524
ag1962
asg5839
(lp6525
g5837
asg3544
(lp6526
(I1769
I296
tp6527
ag1008
as(I685
I349
tp6528
(lp6529
(I678
I367
tp6530
ag5829
asg3281
(lp6531
(I892
I1816
tp6532
a(I853
I1829
tp6533
asg976
(lp6534
(I1301
I1073
tp6535
ag4496
asg6084
(lp6536
(I237
I1077
tp6537
ag777
asg3022
(lp6538
(I1467
I422
tp6539
ag872
asg784
(lp6540
(I238
I1961
tp6541
ag782
asg6449
(lp6542
(I1166
I1507
tp6543
ag826
asg5950
(lp6544
(I80
I1007
tp6545
a(I69
I1034
tp6546
a(I107
I1020
tp6547
a(I94
I1044
tp6548
asg591
(lp6549
(I262
I175
tp6550
ag2194
asg5828
(lp6551
(I1147
I1349
tp6552
ag4601
asg2805
(lp6553
(I1475
I438
tp6554
ag54
asg3413
(lp6555
(I963
I1274
tp6556
ag366
asg5653
(lp6557
(I1957
I1933
tp6558
ag811
asg1257
(lp6559
(I907
I1778
tp6560
a(I916
I1750
tp6561
asg656
(lp6562
(I253
I90
tp6563
ag3564
asg189
(lp6564
(I192
I1994
tp6565
ag3661
asg5369
(lp6566
(I590
I234
tp6567
ag3377
asg4872
(lp6568
(I1743
I1912
tp6569
ag725
asg2695
(lp6570
(I608
I1570
tp6571
ag5144
as(I51
I1041
tp6572
(lp6573
(I69
I1034
tp6574
as(I1033
I348
tp6575
(lp6576
(I1021
I331
tp6577
ag839
asg312
(lp6578
(I1186
I1366
tp6579
asg4066
(lp6580
(I1662
I237
tp6581
a(I1658
I195
tp6582
asg5133
(lp6583
(I1097
I730
tp6584
asg6474
(lp6585
g6472
asg6260
(lp6586
(I551
I207
tp6587
a(I574
I186
tp6588
asg1583
(lp6589
(I124
I904
tp6590
ag4968
asg4069
(lp6591
(I1825
I895
tp6592
ag473
as(I51
I932
tp6593
(lp6594
(I44
I913
tp6595
a(I57
I950
tp6596
asg2402
(lp6597
(I1526
I815
tp6598
ag3892
asg5863
(lp6599
(I560
I780
tp6600
a(I592
I754
tp6601
ag3743
asg4683
(lp6602
(I744
I1710
tp6603
ag4113
asg2869
(lp6604
(I1609
I327
tp6605
ag4587
a(I1575
I318
tp6606
asg5536
(lp6607
(I1818
I739
tp6608
ag2755
asg5063
(lp6609
(I357
I772
tp6610
ag6116
asg1422
(lp6611
(I1897
I277
tp6612
ag6079
asg461
(lp6613
(I1999
I1949
tp6614
ag6411
asg752
(lp6615
(I342
I92
tp6616
ag4389
asg4885
(lp6617
(I1589
I835
tp6618
ag5636
asg5686
(lp6619
(I91
I1398
tp6620
ag5172
asg3742
(lp6621
(I1526
I830
tp6622
ag6224
asg2708
(lp6623
(I439
I236
tp6624
a(I453
I202
tp6625
asg5643
(lp6626
(I1878
I748
tp6627
ag6314
asg2067
(lp6628
(I1653
I741
tp6629
ag4328
asg2519
(lp6630
(I868
I1839
tp6631
ag3833
asg6148
(lp6632
(I104
I1579
tp6633
a(I137
I1598
tp6634
asg64
(lp6635
(I1819
I950
tp6636
ag1473
asg1579
(lp6637
(I63
I496
tp6638
ag3611
as(I281
I347
tp6639
(lp6640
(I259
I346
tp6641
ag3048
asg6138
(lp6642
(I500
I690
tp6643
a(I525
I718
tp6644
a(I494
I726
tp6645
as(I1107
I1291
tp6646
(lp6647
(I1108
I1312
tp6648
a(I1106
I1271
tp6649
asg6131
(lp6650
(I1750
I775
tp6651
a(I1749
I735
tp6652
asg2589
(lp6653
(I54
I1987
tp6654
ag5845
asg4431
(lp6655
(I1401
I484
tp6656
ag2688
asg138
(lp6657
g135
a(I916
I53
tp6658
asg3119
(lp6659
(I219
I1907
tp6660
ag1413
asg1192
(lp6661
(I425
I1612
tp6662
ag3505
asg4197
(lp6663
(I1224
I113
tp6664
ag994
asg2159
(lp6665
(I1303
I165
tp6666
ag4533
asg292
(lp6667
(I266
I1564
tp6668
ag6340
asg6520
(lp6669
(I149
I782
tp6670
ag1665
asg6171
(lp6671
g6169
ag2642
ag4295
ag4636
asg3919
(lp6672
(I1445
I1992
tp6673
asg1973
(lp6674
(I1910
I1866
tp6675
ag4860
asg3667
(lp6676
(I312
I1727
tp6677
ag5786
asg6027
(lp6678
(I238
I344
tp6679
ag6639
asg2582
(lp6680
(I252
I428
tp6681
asg553
(lp6682
g551
a(I1509
I1959
tp6683
ag4802
as(I1691
I1753
tp6684
(lp6685
(I1711
I1754
tp6686
ag5611
asg454
(lp6687
(I1221
I1478
tp6688
ag6343
asg3670
(lp6689
(I201
I1895
tp6690
ag805
asg3716
(lp6691
(I1226
I536
tp6692
ag4165
asg712
(lp6693
(I165
I1088
tp6694
a(I204
I1086
tp6695
asg2847
(lp6696
(I1397
I1942
tp6697
ag6039
asg585
(lp6698
g583
ag2309
asg814
(lp6699
(I1959
I1975
tp6700
asg6213
(lp6701
(I715
I430
tp6702
ag4798
asg4060
(lp6703
(I1594
I520
tp6704
ag5316
asg2981
(lp6705
(I833
I740
tp6706
ag4019
asg4774
(lp6707
(I1186
I545
tp6708
ag3713
asg6368
(lp6709
(I968
I1814
tp6710
a(I968
I1795
tp6711
asg6480
(lp6712
(I1014
I707
tp6713
asg2246
(lp6714
(I310
I552
tp6715
ag5175
asg611
(lp6716
(I1424
I1952
tp6717
ag5119
as(I392
I1888
tp6718
(lp6719
(I411
I1889
tp6720
ag470
asg2769
(lp6721
(I180
I165
tp6722
a(I218
I176
tp6723
ag5483
asg2119
(lp6724
g2117
ag1698
asg4361
(lp6725
(I1173
I767
tp6726
ag1193
asg6194
(lp6727
(I65
I212
tp6728
asg3093
(lp6729
g3091
ag741
ag5945
asg4280
(lp6730
(I704
I102
tp6731
ag3545
asg5656
(lp6732
(I303
I1959
tp6733
ag4077
asg3587
(lp6734
(I1293
I104
tp6735
ag2348
asg1920
(lp6736
g1918
ag3401
asg5261
(lp6737
g5258
ag6459
asg5507
(lp6738
(I474
I1689
tp6739
ag6510
asg3112
(lp6740
(I712
I1015
tp6741
ag1493
asg1351
(lp6742
(I192
I1837
tp6743
a(I194
I1870
tp6744
asg5489
(lp6745
g5487
ag2596
asg4859
(lp6746
(I414
I1745
tp6747
a(I409
I1733
tp6748
ag1555
asg6200
(lp6749
(I205
I896
tp6750
ag3013
as(I1107
I1713
tp6751
(lp6752
(I1103
I1734
tp6753
a(I1102
I1694
tp6754
asg3350
(lp6755
(I885
I51
tp6756
a(I892
I94
tp6757
asg3227
(lp6758
(I1494
I201
tp6759
ag3636
asg4271
(lp6760
(I265
I251
tp6761
ag5101
asg5893
(lp6762
(I1439
I63
tp6763
ag3347
asg6588
(lp6764
(I553
I186
tp6765
a(I596
I186
tp6766
asg1431
(lp6767
(I203
I1963
tp6768
ag1429
asg1648
(lp6769
(I1085
I751
tp6770
ag5676
asg188
(lp6771
g186
asg2973
(lp6772
(I377
I1079
tp6773
ag2743
asg6229
(lp6774
(I1490
I524
tp6775
a(I1448
I519
tp6776
asg5486
(lp6777
(I211
I191
tp6778
ag5189
asg4767
(lp6779
(I845
I538
tp6780
ag4758
asg3801
(lp6781
(I1347
I1185
tp6782
asg5714
(lp6783
(I859
I859
tp6784
ag4990
asg4709
(lp6785
(I1634
I895
tp6786
ag514
asg4825
(lp6787
g4823
ag4743
ag3523
asg6273
(lp6788
(I624
I271
tp6789
ag3394
asg5682
(lp6790
(I1344
I1282
tp6791
ag1369
ag5731
ag3658
asg6561
(lp6792
(I924
I1769
tp6793
ag104
asg1067
(lp6794
(I97
I1973
tp6795
ag6426
asg2497
(lp6796
(I1032
I1926
tp6797
a(I997
I1952
tp6798
a(I1010
I1933
tp6799
asg4415
(lp6800
(I1167
I654
tp6801
ag4201
asg2232
(lp6802
(I1454
I1855
tp6803
ag6388
asg2815
(lp6804
(I286
I392
tp6805
ag5958
asg6157
(lp6806
(I1341
I1058
tp6807
ag973
asg4485
(lp6808
(I1307
I365
tp6809
ag1159
asg6145
(lp6810
(I1108
I1333
tp6811
ag6646
asg6634
(lp6812
(I118
I1591
tp6813
a(I156
I1602
tp6814
asg4374
(lp6815
(I376
I1577
tp6816
ag4265
asg6601
(lp6817
(I577
I768
tp6818
a(I586
I734
tp6819
asg4549
(lp6820
(I1092
I1430
tp6821
ag2391
asg842
(lp6822
(I1054
I357
tp6823
ag950
asg1508
(lp6824
(I425
I330
tp6825
a(I467
I334
tp6826
asg5600
(lp6827
(I119
I1889
tp6828
ag691
asg2437
(lp6829
(I1324
I568
tp6830
ag6000
asg1645
(lp6831
(I349
I731
tp6832
ag5060
asg4822
(lp6833
(I1851
I1853
tp6834
ag6161
asg5707
(lp6835
(I232
I1905
tp6836
ag4091
asg5479
(lp6837
(I261
I1694
tp6838
a(I257
I1702
tp6839
ag4121
asg4386
(lp6840
(I288
I899
tp6841
ag6166
asg2163
(lp6842
(I1915
I693
tp6843
a(I1951
I705
tp6844
asg3025
(lp6845
(I191
I1817
tp6846
a(I185
I1778
tp6847
asg5108
(lp6848
(I1005
I1787
tp6849
ag5565
asg3859
(lp6850
(I970
I514
tp6851
ag5064
asg6387
(lp6852
g6385
ag5271
asg3215
(lp6853
g3213
ag2938
asg4366
(lp6854
g4364
ag3792
ag4128
asg6018
(lp6855
(I540
I1766
tp6856
ag6438
asg4211
(lp6857
(I166
I648
tp6858
ag6050
as(I489
I334
tp6859
(lp6860
(I467
I334
tp6861
ag657
as(I398
I958
tp6862
(lp6863
(I420
I958
tp6864
ag5977
asg1772
(lp6865
g1770
ag4003
asg2116
(lp6866
(I1452
I149
tp6867
ag2068
asg5970
(lp6868
(I1384
I428
tp6869
ag1996
asg6814
(lp6870
(I137
I1598
tp6871
ag4715
asg2380
(lp6872
(I581
I493
tp6873
ag954
asg4841
(lp6874
(I432
I1926
tp6875
ag3446
asg5756
(lp6876
(I430
I1168
tp6877
ag273
asg5944
(lp6878
(I1140
I1578
tp6879
ag1829
ag3302
asg4625
(lp6880
(I1350
I1416
tp6881
ag4954
asg6596
(lp6882
(I51
I932
tp6883
ag1847
ag3286
ag5595
asg6766
(lp6884
(I574
I186
tp6885
ag6392
asg1678
(lp6886
(I1796
I475
tp6887
ag5320
asg2619
(lp6888
(I1578
I425
tp6889
ag3367
asg3776
(lp6890
(I1228
I1560
tp6891
ag2079
asg1522
(lp6892
(I111
I730
tp6893
ag2167
asg49
(lp6894
(I373
I1803
tp6895
ag4261
asg4367
(lp6896
(I1698
I772
tp6897
a(I1672
I791
tp6898
ag1599
asg2730
(lp6899
g2728
ag4468
ag5770
asg3627
(lp6900
(I1514
I1999
tp6901
asg691
(lp6902
g5600
a(I170
I1895
tp6903
ag689
asg6178
(lp6904
(I415
I146
tp6905
ag3190
asg5386
(lp6906
(I1733
I172
tp6907
ag4666
asg6290
(lp6908
(I1200
I1910
tp6909
ag403
asg3420
(lp6910
(I1209
I791
tp6911
ag4358
asg5462
(lp6912
(I1200
I1192
tp6913
asg4545
(lp6914
g4543
ag2399
ag3739
asg2541
(lp6915
(I252
I800
tp6916
ag5156
asg80
(lp6917
(I1343
I1223
tp6918
ag3798
asg2031
(lp6919
(I430
I317
tp6920
ag1273
asg3657
(lp6921
(I665
I204
tp6922
a(I703
I188
tp6923
as(I216
I1950
tp6924
(lp6925
(I231
I1966
tp6926
ag3580
asg1203
(lp6927
(I247
I1982
tp6928
ag6924
asg4850
(lp6929
(I128
I1882
tp6930
ag6454
asg756
(lp6931
(I1106
I1675
tp6932
a(I1107
I1713
tp6933
a(I1100
I1706
tp6934
asg636
(lp6935
(I1115
I1476
tp6936
a(I1070
I1478
tp6937
asg4593
(lp6938
(I130
I1928
tp6939
ag2315
asg4994
(lp6940
(I887
I826
tp6941
ag2269
asg4572
(lp6942
(I1374
I620
tp6943
ag301
asg1238
(lp6944
(I552
I1870
tp6945
ag2542
asg5661
(lp6946
(I972
I1437
tp6947
ag3809
ag6085
asg4868
(lp6948
(I1943
I1893
tp6949
ag5650
asg6844
(lp6950
(I1933
I697
tp6951
ag4657
a(I1967
I708
tp6952
asg4046
(lp6953
(I1262
I1265
tp6954
ag4450
asg2304
(lp6955
(I1875
I356
tp6956
ag5041
asg530
(lp6957
(I672
I596
tp6958
ag3729
asg3954
(lp6959
(I694
I1856
tp6960
ag5428
asg6029
(lp6961
(I173
I1877
tp6962
ag4476
asg4318
(lp6963
g4316
ag4771
asg4401
(lp6964
(I1247
I79
tp6965
ag4194
asg3129
(lp6966
(I1719
I109
tp6967
ag5737
asg3094
(lp6968
(I1430
I331
tp6969
a(I1465
I330
tp6970
asg4445
(lp6971
(I615
I1784
tp6972
a(I589
I1818
tp6973
as(I442
I958
tp6974
(lp6975
(I420
I958
tp6976
asg1921
(lp6977
(I1113
I1429
tp6978
ag2903
asg4526
(lp6979
(I1076
I578
tp6980
ag5495
as(I63
I1790
tp6981
(lp6982
(I79
I1806
tp6983
ag4117
asg4090
(lp6984
(I295
I739
tp6985
ag4305
asg3966
(lp6986
g3964
asg3409
(lp6987
(I704
I1567
tp6988
ag6307
asg6826
(lp6989
(I446
I334
tp6990
ag6859
asg4729
(lp6991
(I1274
I666
tp6992
a(I1276
I625
tp6993
asg4639
(lp6994
(I1898
I814
tp6995
ag6019
asg6101
(lp6996
(I62
I411
tp6997
ag1137
asg6295
(lp6998
(I815
I1991
tp6999
ag3270
asg5143
(lp7000
(I1268
I1471
tp7001
a(I1273
I1436
tp7002
asg1793
(lp7003
(I1295
I1907
tp7004
ag4650
asg1752
(lp7005
(I853
I1829
tp7006
ag1016
asg6973
(lp7007
(I602
I1801
tp7008
ag493
asg429
(lp7009
(I784
I1534
tp7010
ag4507
asg3343
(lp7011
g3341
ag4981
asg3825
(lp7012
(I495
I1649
tp7013
a(I495
I1614
tp7014
asg1148
(lp7015
(I1267
I1245
tp7016
ag93
asg1942
(lp7017
(I263
I1997
tp7018
ag866
asg4227
(lp7019
(I1145
I1269
tp7020
a(I1106
I1271
tp7021
asg680
(lp7022
g678
a(I1711
I1754
tp7023
as(I1853
I599
tp7024
(lp7025
(I1851
I577
tp7026
ag3706
asg18
(lp7027
(I610
I411
tp7028
ag5134
asg3450
(lp7029
(I431
I1890
tp7030
ag6718
asg5942
(lp7031
(I1089
I1745
tp7032
ag6751
asg4959
(lp7033
(I1531
I412
tp7034
ag3631
asg2603
(lp7035
(I37
I1785
tp7036
ag4698
asg7023
(lp7037
(I1728
I1762
tp7038
ag6684
asg5233
(lp7039
g5231
ag6593
asg1317
(lp7040
(I1319
I1985
tp7041
asg6408
(lp7042
(I1300
I625
tp7043
ag786
asg5502
(lp7044
(I111
I1765
tp7045
a(I110
I1724
tp7046
asg1938
(lp7047
(I409
I357
tp7048
ag2747
ag5019
asg5078
(lp7049
(I1985
I639
tp7050
ag3234
asg4976
(lp7051
(I1509
I1736
tp7052
ag5419
asg6952
(lp7053
(I1951
I705
tp7054
ag6500
asg2985
(lp7055
(I1307
I1581
tp7056
ag5618
asg3752
(lp7057
(I1720
I989
tp7058
a(I1704
I954
tp7059
asg6574
(lp7060
g6572
a(I88
I1027
tp7061
asg5919
(lp7062
(I272
I1870
tp7063
ag6182
asg1817
(lp7064
(I227
I952
tp7065
a(I216
I978
tp7066
ag4550
asg5590
(lp7067
(I1203
I1267
tp7068
ag5358
asg5519
(lp7069
(I143
I1739
tp7070
ag2633
asg6606
(lp7071
(I1595
I310
tp7072
ag4660
asg2130
(lp7073
(I1558
I305
tp7074
ag2852
asg1039
(lp7075
(I520
I586
tp7076
ag2994
asg7002
(lp7077
(I1271
I1453
tp7078
asg382
(lp7079
(I77
I1620
tp7080
ag233
asg6757
(lp7081
(I885
I73
tp7082
a(I901
I113
tp7083
asg3470
(lp7084
(I853
I202
tp7085
ag4219
asg6582
(lp7086
(I1663
I216
tp7087
ag2255
asg41
(lp7088
(I94
I936
tp7089
ag5299
asg981
(lp7090
(I1802
I233
tp7091
ag2247
asg6266
(lp7092
(I404
I1684
tp7093
ag2109
asg2064
(lp7094
(I286
I1962
tp7095
ag338
asg2291
(lp7096
(I1813
I181
tp7097
ag5198
as(I1277
I365
tp7098
(lp7099
(I1262
I366
tp7100
ag1342
asg3073
(lp7101
(I1710
I254
tp7102
ag5411
asg3784
(lp7103
(I1202
I350
tp7104
ag4292
asg2412
(lp7105
(I1299
I205
tp7106
ag2156
asg2140
(lp7107
(I1880
I109
tp7108
ag1239
asg3850
(lp7109
(I762
I132
tp7110
ag5027
asg5452
(lp7111
(I442
I676
tp7112
ag5987
asg5801
(lp7113
(I66
I690
tp7114
ag6513
asg1670
(lp7115
(I1159
I1961
tp7116
ag1623
asg4830
(lp7117
(I1269
I1342
tp7118
ag4435
asg1292
(lp7119
(I1748
I594
tp7120
a(I1749
I632
tp7121
ag466
asg6463
(lp7122
(I1278
I1987
tp7123
asg5728
(lp7124
(I98
I264
tp7125
ag3183
asg5583
(lp7126
(I337
I979
tp7127
a(I329
I939
tp7128
a(I355
I958
tp7129
asg7059
(lp7130
(I1704
I975
tp7131
ag163
asg5257
(lp7132
(I1295
I1540
tp7133
ag2982
asg5437
(lp7134
(I1947
I1027
tp7135
ag6032
asg1701
(lp7136
(I1975
I153
tp7137
ag6006
asg5406
(lp7138
(I810
I444
tp7139
asg594
(lp7140
g592
asg2511
(lp7141
(I174
I524
tp7142
a(I216
I512
tp7143
asg4675
(lp7144
(I94
I1823
tp7145
ag6981
asg1454
(lp7146
(I1353
I1474
tp7147
ag1334
asg6005
(lp7148
g6003
ag3931
ag1477
asg7026
(lp7149
g7024
ag1032
ag2560
asg2530
(lp7150
(I906
I82
tp7151
ag135
asg5282
(lp7152
(I858
I1900
tp7153
ag2793
asg5840
(lp7154
(I1299
I1874
tp7155
ag1790
asg3712
(lp7156
(I144
I1633
tp7157
ag5038
asg6937
(lp7158
(I1092
I1477
tp7159
ag2293
asg4264
(lp7160
(I333
I1792
tp7161
ag5291
asg3256
(lp7162
g3254
ag588
asg1089
(lp7163
(I1454
I608
tp7164
ag6152
asg5780
(lp7165
(I658
I370
tp7166
ag6528
asg6976
(lp7167
g6974
ag6862
asg5418
(lp7168
(I78
I1563
tp7169
asg321
(lp7170
(I590
I328
tp7171
ag4924
asg1152
(lp7172
(I1695
I595
tp7173
a(I1677
I614
tp7174
a(I1715
I613
tp7175
asg2056
(lp7176
(I444
I1717
tp7177
ag5691
asg120
(lp7178
(I442
I256
tp7179
ag572
asg378
(lp7180
(I730
I361
tp7181
ag6261
asg7100
(lp7182
g7098
asg6819
(lp7183
(I592
I754
tp7184
ag4186
asg3812
(lp7185
(I944
I1435
tp7186
asg5528
(lp7187
(I1705
I390
tp7188
a(I1697
I349
tp7189
asg2500
(lp7190
(I1552
I505
tp7191
ag576
asg5169
(lp7192
(I1844
I166
tp7193
ag6189
asg598
(lp7194
(I158
I1914
tp7195
ag4848
asg5524
(lp7196
(I101
I502
tp7197
ag2010
asg3361
(lp7198
(I998
I1906
tp7199
ag2889
asg4987
(lp7200
(I1898
I1717
tp7201
ag3958
asg224
(lp7202
(I711
I1319
tp7203
ag1744
asg736
(lp7204
(I1024
I310
tp7205
ag6575
asg4287
(lp7206
(I1539
I1884
tp7207
ag4998
asg5184
(lp7208
(I248
I2011
tp7209
ag4934
asg1007
(lp7210
(I1212
I255
tp7211
a(I1254
I243
tp7212
asg1220
(lp7213
(I581
I1717
tp7214
ag1638
asg4984
(lp7215
(I1626
I1960
tp7216
ag4378
asg7189
(lp7217
(I1699
I371
tp7218
ag190
asg643
(lp7219
(I763
I904
tp7220
ag5088
asg4193
(lp7221
(I573
I97
tp7222
a(I545
I126
tp7223
a(I579
I115
tp7224
as.